Certificate:
    Data:
        Version: 3 (0x2)
        Serial Number: 305419897 (0x12345679)
    Signature Algorithm: sha256WithRSAEncryption
        Issuer: CN=SRK1_sha256_4096_65537_v3_ca
        Validity
            Not Before: Aug 11 21:54:45 2017 GMT
            Not After : Aug  9 21:54:45 2027 GMT
        Subject: CN=CSF1_1_sha256_4096_65537_v3_usr
        Subject Public Key Info:
            Public Key Algorithm: rsaEncryption
                Public-Key: (4096 bit)
                Modulus:
                    00:bf:67:a2:05:ba:a7:c3:84:74:2f:89:49:36:b1:
                    3d:72:4b:9d:2e:f9:28:86:b9:90:80:76:e8:ba:20:
                    fd:99:de:9c:99:9e:f3:3f:c9:cb:0b:22:71:5f:4e:
                    ff:a4:84:15:a5:d6:fa:24:a3:b7:7c:9d:1a:b3:27:
                    76:f1:6c:b0:cb:a6:39:94:50:ea:2c:6f:89:b0:a5:
                    a3:28:07:6e:81:7e:3a:9a:b2:dd:03:98:e2:5b:03:
                    aa:7e:a3:28:81:6f:70:d5:6d:2f:9f:dd:62:4d:d9:
                    b9:c5:12:5c:ba:57:d8:db:c9:f1:4b:0b:2d:84:ce:
                    04:4f:06:d2:e7:6b:6e:73:9d:c0:f0:f9:a4:fe:c5:
                    a3:22:90:ee:c2:ff:7d:c3:5f:b0:f4:fd:6b:72:02:
                    9e:db:bb:d1:14:d7:f1:0a:f3:9a:1f:5a:17:f8:ac:
                    ed:fa:bf:9a:2c:5b:07:43:e0:bd:5a:64:0d:82:b6:
                    5d:2b:40:2a:4a:2f:d2:8c:c0:12:26:56:9c:fb:ef:
                    29:81:5e:5b:0b:de:27:4a:e5:e8:49:75:a9:3e:32:
                    1b:eb:40:f6:e2:47:d7:47:31:19:bf:3a:f2:a6:7a:
                    63:53:88:58:a8:04:f4:f8:ae:bf:b9:0f:ad:1c:86:
                    7c:83:80:63:f1:5c:0d:f6:10:43:87:ef:0a:8e:96:
                    36:eb:cc:64:78:ff:7d:1d:f0:fa:bc:07:de:1e:02:
                    a8:03:1e:8a:22:24:cd:55:78:79:d5:9d:fc:57:de:
                    b9:1f:3b:82:74:75:cc:95:2c:03:81:ba:55:6f:22:
                    ca:36:5f:58:01:cb:d7:bc:35:87:4b:38:f0:23:c6:
                    26:0e:c1:4b:57:fb:14:a6:1b:10:a8:10:2d:fd:03:
                    4b:37:08:f5:02:fd:4b:bc:55:39:15:7c:04:3b:eb:
                    d6:0f:aa:74:de:a6:b8:3b:cd:dd:46:2f:da:ca:ad:
                    e2:3f:1e:9d:fd:66:4c:ee:d7:fe:be:2d:33:d9:bd:
                    10:d1:fd:66:f6:5b:79:95:b5:46:75:80:2f:43:61:
                    53:08:64:11:e6:b5:3b:42:2b:a2:3f:22:fa:fe:5d:
                    c7:a9:eb:da:a8:ee:a0:93:a6:70:ec:8e:a9:9b:89:
                    ec:10:72:93:e4:b1:42:24:01:22:ad:c6:2e:2e:dd:
                    91:93:4c:a0:f5:89:ae:9b:5d:2f:0c:c8:29:e1:fc:
                    91:d3:11:24:b8:86:f2:7e:f9:93:f8:ae:7e:3a:57:
                    6a:1d:e9:51:b5:62:ca:8c:f8:76:90:5c:34:73:5f:
                    40:a0:b2:54:43:d8:06:7c:0c:1a:d6:b7:7b:ec:84:
                    e0:05:77:47:d5:2a:d6:a1:6c:04:95:c1:c2:c4:f0:
                    0e:37:bd
                Exponent: 65537 (0x10001)
        X509v3 extensions:
            X509v3 Basic Constraints: 
                CA:FALSE
            Netscape Comment: 
                OpenSSL Generated Certificate
            X509v3 Subject Key Identifier: 
                C9:9C:E9:6D:91:C0:2B:4B:C3:F8:F5:F9:8E:A0:EC:85:6A:04:5C:E1
            X509v3 Authority Key Identifier: 
                keyid:A6:C7:4B:8A:69:1F:98:7A:C5:FB:0F:E4:2F:93:50:34:CD:83:E4:E0

    Signature Algorithm: sha256WithRSAEncryption
         51:81:84:d1:8e:7f:23:c9:9b:7f:d9:50:78:6d:d9:9d:f9:a0:
         ae:68:7b:8f:67:01:37:50:0e:45:7c:ff:be:dd:62:21:cc:f8:
         20:9f:3f:12:22:23:c6:31:fd:bf:14:6f:9f:53:34:71:c3:08:
         62:1d:54:f0:ea:2a:4d:c8:b8:94:ab:4d:9b:27:58:c6:5a:3e:
         36:94:09:10:07:bc:c8:30:f3:db:6e:36:39:3a:39:85:84:26:
         59:f3:37:e1:f8:74:0f:1f:3c:8d:2a:48:95:73:61:b7:0f:0a:
         33:b6:ec:38:71:41:5a:96:27:1e:b9:c0:e3:73:96:d9:e6:c3:
         ff:4c:87:a7:6a:87:67:69:50:08:33:a1:0c:75:73:8b:4d:c7:
         62:72:66:de:b9:58:99:5d:df:55:3e:32:b9:0b:12:19:e4:1b:
         bb:fc:c7:5f:52:ce:d6:9f:45:ca:26:f1:84:03:cc:12:cb:bb:
         5f:a8:1a:1c:99:f9:85:4e:cc:f7:2d:19:dc:b0:e5:a0:a2:0b:
         7e:82:a4:29:e9:f6:83:54:c5:9c:ef:bc:86:8e:fe:4d:5b:83:
         8e:56:40:f7:f2:f6:30:31:ea:ab:48:c2:d5:95:5d:4f:67:b7:
         7b:b0:61:78:0e:e5:6f:83:84:fa:87:51:9a:4a:28:03:94:c7:
         17:eb:46:15:9f:5c:c0:66:39:6e:80:1a:7e:a2:10:70:ce:01:
         a0:11:6c:52:c4:c4:4e:59:61:0c:aa:22:4f:16:87:4f:4a:4c:
         1c:09:b7:f0:84:95:ba:09:ab:eb:8e:ae:f9:1a:d2:41:c7:77:
         64:a0:1c:1b:42:2b:24:11:7c:56:56:ef:16:20:80:19:b2:66:
         70:a6:e8:9c:0b:fe:47:ce:ad:6f:28:71:14:c8:1f:9b:71:34:
         e8:49:66:05:95:bd:de:17:8d:6b:38:d3:ab:89:b8:f7:52:31:
         33:8d:18:53:31:ed:92:ea:e4:85:30:d7:f2:15:89:ef:90:9c:
         61:52:db:b3:07:b5:9c:e4:49:52:9d:71:19:9b:95:89:ee:aa:
         be:42:2a:99:9e:0f:b7:2e:f9:4f:a3:75:d7:79:04:00:34:00:
         b0:71:d5:8f:47:91:7f:44:6e:77:51:c6:8b:f8:cf:65:10:fa:
         e6:35:4c:94:48:46:d0:da:d3:af:f5:85:e0:df:22:18:54:9b:
         07:63:68:df:6b:34:ba:0b:96:bb:70:be:a4:9d:1a:2e:91:8d:
         a5:8b:ea:f3:83:da:63:24:3c:ad:6a:94:f8:a3:41:c3:ff:ff:
         8c:a6:29:7c:c4:03:bd:b2:ba:02:62:07:e5:70:b1:78:41:50:
         30:99:ef:fe:67:6b:8d:3f
-----BEGIN CERTIFICATE-----
MIIFSjCCAzKgAwIBAgIEEjRWeTANBgkqhkiG9w0BAQsFADAnMSUwIwYDVQQDDBxT
UksxX3NoYTI1Nl80MDk2XzY1NTM3X3YzX2NhMB4XDTE3MDgxMTIxNTQ0NVoXDTI3
MDgwOTIxNTQ0NVowKjEoMCYGA1UEAwwfQ1NGMV8xX3NoYTI1Nl80MDk2XzY1NTM3
X3YzX3VzcjCCAiIwDQYJKoZIhvcNAQEBBQADggIPADCCAgoCggIBAL9nogW6p8OE
dC+JSTaxPXJLnS75KIa5kIB26Log/ZnenJme8z/JywsicV9O/6SEFaXW+iSjt3yd
GrMndvFssMumOZRQ6ixvibCloygHboF+Opqy3QOY4lsDqn6jKIFvcNVtL5/dYk3Z
ucUSXLpX2NvJ8UsLLYTOBE8G0udrbnOdwPD5pP7FoyKQ7sL/fcNfsPT9a3ICntu7
0RTX8Qrzmh9aF/is7fq/mixbB0PgvVpkDYK2XStAKkov0ozAEiZWnPvvKYFeWwve
J0rl6El1qT4yG+tA9uJH10cxGb868qZ6Y1OIWKgE9Piuv7kPrRyGfIOAY/FcDfYQ
Q4fvCo6WNuvMZHj/fR3w+rwH3h4CqAMeiiIkzVV4edWd/FfeuR87gnR1zJUsA4G6
VW8iyjZfWAHL17w1h0s48CPGJg7BS1f7FKYbEKgQLf0DSzcI9QL9S7xVORV8BDvr
1g+qdN6muDvN3UYv2sqt4j8enf1mTO7X/r4tM9m9ENH9ZvZbeZW1RnWAL0NhUwhk
Eea1O0Iroj8i+v5dx6nr2qjuoJOmcOyOqZuJ7BByk+SxQiQBIq3GLi7dkZNMoPWJ
rptdLwzIKeH8kdMRJLiG8n75k/iufjpXah3pUbViyoz4dpBcNHNfQKCyVEPYBnwM
Gta3e+yE4AV3R9Uq1qFsBJXBwsTwDje9AgMBAAGjezB5MAkGA1UdEwQCMAAwLAYJ
YIZIAYb4QgENBB8WHU9wZW5TU0wgR2VuZXJhdGVkIENlcnRpZmljYXRlMB0GA1Ud
DgQWBBTJnOltkcArS8P49fmOoOyFagRc4TAfBgNVHSMEGDAWgBSmx0uKaR+YesX7
D+Qvk1A0zYPk4DANBgkqhkiG9w0BAQsFAAOCAgEAUYGE0Y5/I8mbf9lQeG3Znfmg
rmh7j2cBN1AORXz/vt1iIcz4IJ8/EiIjxjH9vxRvn1M0ccMIYh1U8OoqTci4lKtN
mydYxlo+NpQJEAe8yDDz2242OTo5hYQmWfM34fh0Dx88jSpIlXNhtw8KM7bsOHFB
WpYnHrnA43OW2ebD/0yHp2qHZ2lQCDOhDHVzi03HYnJm3rlYmV3fVT4yuQsSGeQb
u/zHX1LO1p9FyibxhAPMEsu7X6gaHJn5hU7M9y0Z3LDloKILfoKkKen2g1TFnO+8
ho7+TVuDjlZA9/L2MDHqq0jC1ZVdT2e3e7BheA7lb4OE+odRmkooA5THF+tGFZ9c
wGY5boAafqIQcM4BoBFsUsTETllhDKoiTxaHT0pMHAm38ISVugmr646u+RrSQcd3
ZKAcG0IrJBF8VlbvFiCAGbJmcKbonAv+R86tbyhxFMgfm3E06ElmBZW93heNazjT
q4m491IxM40YUzHtkurkhTDX8hWJ75CcYVLbswe1nORJUp1xGZuVie6qvkIqmZ4P
ty75T6N113kEADQAsHHVj0eRf0Rud1HGi/jPZRD65jVMlEhG0NrTr/WF4N8iGFSb
B2No32s0uguWu3C+pJ0aLpGNpYvq84PaYyQ8rWqU+KNBw///jKYpfMQDvbK6AmIH
5XCxeEFQMJnv/mdrjT8=
-----END CERTIFICATE-----
