Certificate:
    Data:
        Version: 3 (0x2)
        Serial Number: 305419900 (0x1234567c)
    Signature Algorithm: sha256WithRSAEncryption
        Issuer: CN=SRK2_sha256_4096_65537_v3_ca
        Validity
            Not Before: Aug 11 21:54:46 2017 GMT
            Not After : Aug  9 21:54:46 2027 GMT
        Subject: CN=CSF2_1_sha256_4096_65537_v3_usr
        Subject Public Key Info:
            Public Key Algorithm: rsaEncryption
                Public-Key: (4096 bit)
                Modulus:
                    00:ca:a3:0a:4e:f7:11:77:4b:ff:8e:85:02:0a:d6:
                    e6:ab:aa:67:b0:87:1c:73:38:0d:b0:29:61:62:70:
                    72:20:6e:44:38:c2:cf:33:87:b6:92:66:be:4a:0c:
                    ea:51:22:d5:6c:3e:49:2f:7e:51:46:5d:22:91:53:
                    71:cd:87:09:5a:8b:ea:b8:71:82:af:cb:4a:c7:84:
                    ca:33:6d:46:da:33:e6:be:91:77:60:07:db:5e:3f:
                    d3:55:00:07:a7:94:fd:30:6c:8c:ba:93:4b:3a:e0:
                    da:a8:36:15:c2:1e:5b:6f:50:06:48:02:ba:36:c2:
                    33:c6:71:ee:c3:44:d1:e0:ac:1c:6f:32:23:26:95:
                    31:80:08:03:cd:1c:88:ff:10:fb:ea:87:bf:e2:82:
                    4b:7c:68:e0:1c:da:0b:f0:10:48:c5:51:13:6f:d6:
                    4c:02:f8:90:30:ea:34:96:f9:1a:50:6f:7d:b2:4e:
                    2d:21:38:37:de:8d:bc:1f:af:80:bc:8c:41:e7:87:
                    96:2b:76:89:d9:c3:51:97:18:54:38:72:a2:50:64:
                    f3:39:ac:42:77:19:22:b1:0b:46:34:fc:aa:71:d7:
                    e0:f6:e3:56:9e:77:4b:59:18:d5:3d:7d:11:3e:6b:
                    7f:c0:39:2d:22:2c:ba:dd:a4:1d:34:0f:98:7c:6b:
                    e0:05:58:51:e5:e9:f5:9f:90:cd:df:ff:a8:88:6f:
                    f4:fc:35:98:46:76:17:3e:9c:18:95:c0:cf:7a:57:
                    2e:1e:a3:3e:0b:60:c6:f6:6f:4c:ec:ab:1f:0a:ae:
                    5a:6b:ae:83:a1:20:57:e6:9b:c6:f0:06:78:c8:24:
                    12:c2:b8:76:1f:c9:9c:f0:f4:a1:dc:a8:3f:19:41:
                    92:c6:e4:e3:d8:5f:05:07:55:53:88:df:e7:a6:78:
                    d5:57:ab:c3:41:92:3e:06:be:60:c9:2e:38:73:2c:
                    c7:34:51:85:f7:4b:f6:25:8c:47:70:bb:74:a7:a0:
                    5b:15:1b:75:f7:78:ca:82:41:f6:1a:5d:14:19:19:
                    5b:e5:0c:40:7f:a0:64:4c:6a:1d:8b:45:34:f5:2c:
                    c3:a0:9c:8b:c5:05:35:5a:41:5a:9a:5e:28:08:3a:
                    df:28:36:ab:52:46:3b:ff:dd:83:5a:0e:99:66:d6:
                    61:8d:02:33:a5:59:d0:3d:4b:1f:c7:d3:95:e3:e1:
                    43:2e:d3:ab:c0:b9:8c:33:90:d8:b6:11:d0:f9:a2:
                    a5:eb:e4:25:e8:ca:a2:d7:26:53:5f:d9:b4:8b:1c:
                    27:c5:30:e1:ad:91:fe:52:70:ec:b7:0e:32:9f:02:
                    98:63:d9:47:d2:74:69:5b:87:c7:e8:8c:50:21:f1:
                    67:7e:13
                Exponent: 65537 (0x10001)
        X509v3 extensions:
            X509v3 Basic Constraints: 
                CA:FALSE
            Netscape Comment: 
                OpenSSL Generated Certificate
            X509v3 Subject Key Identifier: 
                B2:1C:9A:70:18:6C:CF:A8:F3:29:AA:DD:92:84:D5:EF:B9:56:D4:96
            X509v3 Authority Key Identifier: 
                keyid:83:DA:36:50:7E:42:32:ED:E0:05:9B:3B:9E:9D:0E:F4:D6:AB:D8:C7

    Signature Algorithm: sha256WithRSAEncryption
         1d:d5:8e:92:f2:ac:47:b4:bc:8f:7b:1d:2c:a0:8d:20:c3:2f:
         71:f0:ae:55:be:c0:ce:6f:51:4c:e4:34:0a:5c:3e:af:bc:15:
         3d:72:bc:b5:28:76:bc:d4:99:c8:2e:e5:7b:26:68:a0:5f:16:
         44:ec:07:95:12:70:52:1c:a4:02:a0:79:a5:87:55:e1:7a:77:
         b1:4f:09:30:7c:92:5d:b9:ae:48:94:b6:fd:85:7b:38:7d:f1:
         0a:00:ea:08:7e:eb:16:a3:bf:df:52:c8:2b:79:ba:fa:dc:93:
         53:f4:7b:68:10:ac:b8:53:fb:67:c1:e8:40:23:c3:c2:4a:af:
         9f:20:9a:f1:77:8f:cc:5c:54:72:bb:fd:d8:8c:28:fe:2b:d0:
         ae:94:cb:e9:71:59:21:60:e8:cc:d7:f7:60:2e:ca:fb:31:9e:
         17:5c:4e:79:2b:d3:0e:05:87:d6:6a:c5:c0:51:d5:dd:72:6f:
         34:f6:c8:85:5a:f1:54:82:77:66:aa:5f:df:ba:af:ff:c4:eb:
         38:a5:93:f7:ed:c9:c6:54:19:1f:08:9d:a6:e5:69:06:5d:46:
         60:b5:3b:c1:52:93:28:4b:1c:2c:f2:78:cc:88:0a:8e:63:f9:
         59:ab:5a:55:f8:c8:a0:09:f1:65:51:b0:0b:10:2a:52:2e:66:
         b2:6f:4a:0d:bb:e8:a6:33:f1:c4:6c:95:df:10:37:67:ed:86:
         17:4d:c6:d6:9a:20:45:69:c0:1d:58:67:c2:b9:53:0e:b4:e4:
         3a:82:dc:21:6a:20:4e:35:ac:e4:4f:fe:39:00:e0:52:16:4f:
         ad:05:5a:0b:84:d1:b8:c0:ba:58:d7:5d:5d:3b:27:4a:b3:b5:
         3f:fb:78:df:f9:53:c4:a8:a9:da:58:04:cd:bc:31:41:57:d5:
         7f:d9:ed:ef:31:88:f4:b2:86:35:b2:04:28:4f:5c:0c:45:31:
         6e:ca:0a:d1:f0:49:f9:3b:b5:35:c1:c1:d2:d0:82:12:b2:65:
         5c:c8:2a:e8:95:29:47:7f:2c:71:fd:78:d1:e5:be:2e:19:94:
         ca:d2:bc:fa:bc:66:6d:7d:cf:f5:78:86:24:99:c3:1c:64:c9:
         66:5d:5c:e8:48:ab:95:36:e7:ea:15:2e:4a:e2:d6:a1:8d:84:
         3c:16:2d:fe:42:cf:7d:31:ce:7f:ef:87:ce:e6:aa:9a:76:1e:
         88:ba:22:2c:cb:02:ec:a6:e4:bd:f0:67:16:3b:62:87:51:83:
         87:73:68:2b:6d:ff:96:7f:01:f9:78:bf:b4:ff:cf:42:36:17:
         f8:23:a3:75:b9:45:62:25:8f:90:d4:af:d9:6b:d9:c3:49:30:
         82:29:c9:00:1f:88:88:74
-----BEGIN CERTIFICATE-----
MIIFSjCCAzKgAwIBAgIEEjRWfDANBgkqhkiG9w0BAQsFADAnMSUwIwYDVQQDDBxT
UksyX3NoYTI1Nl80MDk2XzY1NTM3X3YzX2NhMB4XDTE3MDgxMTIxNTQ0NloXDTI3
MDgwOTIxNTQ0NlowKjEoMCYGA1UEAwwfQ1NGMl8xX3NoYTI1Nl80MDk2XzY1NTM3
X3YzX3VzcjCCAiIwDQYJKoZIhvcNAQEBBQADggIPADCCAgoCggIBAMqjCk73EXdL
/46FAgrW5quqZ7CHHHM4DbApYWJwciBuRDjCzzOHtpJmvkoM6lEi1Ww+SS9+UUZd
IpFTcc2HCVqL6rhxgq/LSseEyjNtRtoz5r6Rd2AH214/01UAB6eU/TBsjLqTSzrg
2qg2FcIeW29QBkgCujbCM8Zx7sNE0eCsHG8yIyaVMYAIA80ciP8Q++qHv+KCS3xo
4BzaC/AQSMVRE2/WTAL4kDDqNJb5GlBvfbJOLSE4N96NvB+vgLyMQeeHlit2idnD
UZcYVDhyolBk8zmsQncZIrELRjT8qnHX4PbjVp53S1kY1T19ET5rf8A5LSIsut2k
HTQPmHxr4AVYUeXp9Z+Qzd//qIhv9Pw1mEZ2Fz6cGJXAz3pXLh6jPgtgxvZvTOyr
HwquWmuug6EgV+abxvAGeMgkEsK4dh/JnPD0odyoPxlBksbk49hfBQdVU4jf56Z4
1Verw0GSPga+YMkuOHMsxzRRhfdL9iWMR3C7dKegWxUbdfd4yoJB9hpdFBkZW+UM
QH+gZExqHYtFNPUsw6Cci8UFNVpBWppeKAg63yg2q1JGO//dg1oOmWbWYY0CM6VZ
0D1LH8fTlePhQy7Tq8C5jDOQ2LYR0PmipevkJejKotcmU1/ZtIscJ8Uw4a2R/lJw
7LcOMp8CmGPZR9J0aVuHx+iMUCHxZ34TAgMBAAGjezB5MAkGA1UdEwQCMAAwLAYJ
YIZIAYb4QgENBB8WHU9wZW5TU0wgR2VuZXJhdGVkIENlcnRpZmljYXRlMB0GA1Ud
DgQWBBSyHJpwGGzPqPMpqt2ShNXvuVbUljAfBgNVHSMEGDAWgBSD2jZQfkIy7eAF
mzuenQ701qvYxzANBgkqhkiG9w0BAQsFAAOCAgEAHdWOkvKsR7S8j3sdLKCNIMMv
cfCuVb7Azm9RTOQ0Clw+r7wVPXK8tSh2vNSZyC7leyZooF8WROwHlRJwUhykAqB5
pYdV4Xp3sU8JMHySXbmuSJS2/YV7OH3xCgDqCH7rFqO/31LIK3m6+tyTU/R7aBCs
uFP7Z8HoQCPDwkqvnyCa8XePzFxUcrv92Iwo/ivQrpTL6XFZIWDozNf3YC7K+zGe
F1xOeSvTDgWH1mrFwFHV3XJvNPbIhVrxVIJ3Zqpf37qv/8TrOKWT9+3JxlQZHwid
puVpBl1GYLU7wVKTKEscLPJ4zIgKjmP5WataVfjIoAnxZVGwCxAqUi5msm9KDbvo
pjPxxGyV3xA3Z+2GF03G1pogRWnAHVhnwrlTDrTkOoLcIWogTjWs5E/+OQDgUhZP
rQVaC4TRuMC6WNddXTsnSrO1P/t43/lTxKip2lgEzbwxQVfVf9nt7zGI9LKGNbIE
KE9cDEUxbsoK0fBJ+Tu1NcHB0tCCErJlXMgq6JUpR38scf140eW+LhmUytK8+rxm
bX3P9XiGJJnDHGTJZl1c6EirlTbn6hUuSuLWoY2EPBYt/kLPfTHOf++HzuaqmnYe
iLoiLMsC7KbkvfBnFjtih1GDh3NoK23/ln8B+Xi/tP/PQjYX+COjdblFYiWPkNSv
2WvZw0kwginJAB+IiHQ=
-----END CERTIFICATE-----
