Certificate:
    Data:
        Version: 3 (0x2)
        Serial Number: 305419898 (0x1234567a)
    Signature Algorithm: sha256WithRSAEncryption
        Issuer: CN=SRK1_sha256_4096_65537_v3_ca
        Validity
            Not Before: Aug 11 21:54:45 2017 GMT
            Not After : Aug  9 21:54:45 2027 GMT
        Subject: CN=IMG1_1_sha256_4096_65537_v3_usr
        Subject Public Key Info:
            Public Key Algorithm: rsaEncryption
                Public-Key: (4096 bit)
                Modulus:
                    00:ef:04:01:e3:90:b5:49:67:bf:46:30:cd:26:7b:
                    b0:25:e1:20:65:47:e4:2a:77:85:b6:1c:2e:88:54:
                    19:fc:c4:85:a1:c4:c6:90:42:94:43:03:bf:12:b3:
                    1f:b7:53:4d:f9:25:3d:cb:be:77:4f:56:31:ef:6c:
                    1d:65:2b:ba:3a:01:0c:6e:ae:48:f8:6b:a5:42:1a:
                    40:d5:36:10:b6:26:6c:74:bf:9d:6d:dc:db:ea:b2:
                    b7:5e:d2:6a:80:10:f3:03:57:e9:a9:ae:1b:e2:ea:
                    a7:8b:62:d1:0c:16:a1:cd:3f:85:e1:53:35:cc:9c:
                    5e:2c:c7:7c:6e:ca:a4:aa:7e:79:b7:14:11:a9:af:
                    67:95:c7:48:a6:87:3e:72:8d:f9:50:75:87:4c:99:
                    23:3e:81:2e:68:6b:15:c2:5f:af:73:ad:27:c8:fb:
                    2f:ce:7c:9e:51:dc:cc:d0:b0:c6:19:04:05:6e:df:
                    07:48:39:4b:75:a0:03:3d:a3:e4:36:0f:18:19:b4:
                    f1:9b:83:78:52:2d:68:5a:eb:86:7c:32:29:4e:e6:
                    e8:7b:06:fc:36:00:4e:9d:8e:c6:e8:67:ac:c7:a0:
                    49:e0:52:4a:3d:1c:99:97:0c:10:8e:ca:f5:d9:02:
                    03:6e:a2:34:3d:64:f7:63:4c:67:1a:f6:7d:37:00:
                    da:0f:2d:c2:9a:ef:ba:93:3a:47:41:fa:f0:1d:0e:
                    80:a8:f4:96:ae:e2:5f:1a:48:f9:1f:fd:8f:72:af:
                    79:0c:57:31:c0:f5:50:ed:40:9d:47:63:e8:0b:46:
                    2a:99:46:78:88:6d:40:39:8f:80:3d:57:31:b6:22:
                    2c:d6:f2:d5:28:36:52:49:28:4d:17:b3:67:ed:0b:
                    8f:07:99:16:24:da:a9:71:f0:f9:90:6b:60:aa:b1:
                    16:fa:8b:16:7d:8d:66:d1:ea:e0:c4:23:8d:14:7e:
                    72:2a:19:6b:29:e3:e1:9b:40:cf:c0:ae:2a:8e:64:
                    52:e9:ac:84:b8:7c:de:c4:f6:72:ce:1d:59:87:68:
                    a6:ea:d3:f3:16:b9:42:b8:83:e9:d2:9e:6a:1d:15:
                    b4:4c:fc:6d:33:c6:f9:67:ec:c6:b9:8c:1b:01:fb:
                    84:84:13:6a:32:c9:55:ec:52:6e:96:31:9f:6d:5e:
                    4a:26:0e:64:41:8e:a9:eb:30:d3:3b:98:56:39:f9:
                    67:b3:5f:70:42:57:9b:ed:26:68:e2:9c:c1:c4:9f:
                    63:0c:2e:8f:fa:d3:a4:d1:e3:3f:39:2e:c4:91:a0:
                    54:8b:bd:3b:ea:77:42:a7:11:c0:eb:27:60:2e:68:
                    54:65:25:a6:ad:51:c4:a4:56:30:2c:0c:6e:69:fd:
                    a8:f6:a5
                Exponent: 65537 (0x10001)
        X509v3 extensions:
            X509v3 Basic Constraints: 
                CA:FALSE
            Netscape Comment: 
                OpenSSL Generated Certificate
            X509v3 Subject Key Identifier: 
                A5:D7:89:CB:8F:FF:A4:61:CE:B4:04:47:EB:57:DC:BD:4D:26:C6:8E
            X509v3 Authority Key Identifier: 
                keyid:A6:C7:4B:8A:69:1F:98:7A:C5:FB:0F:E4:2F:93:50:34:CD:83:E4:E0

    Signature Algorithm: sha256WithRSAEncryption
         37:27:e0:44:5f:3e:49:f2:e6:fd:1c:ad:94:79:f1:14:ab:6f:
         c3:8d:d0:7b:56:66:d5:de:ba:a2:db:19:88:85:01:fe:fb:fa:
         2e:50:21:37:14:44:f4:17:65:1c:29:2a:6b:d8:76:a9:18:14:
         7c:32:40:85:c7:7b:6c:6c:a3:a8:cc:c0:0a:5a:06:bc:c5:00:
         9c:70:03:7f:0e:09:cb:96:4a:23:97:d6:ab:46:47:17:40:16:
         91:d3:0e:3d:3f:8c:e4:d5:ee:b0:eb:d2:8b:99:5b:b3:94:d7:
         0b:15:44:a6:f2:9a:9e:3e:83:d1:dc:66:3d:a6:4c:da:95:39:
         f4:cc:47:99:d8:d6:33:65:91:bc:d6:d8:a2:51:ab:52:5d:b8:
         f4:3a:ea:28:ff:f7:2c:da:ac:c6:44:42:e6:20:68:ba:7b:2d:
         9e:28:fd:76:d0:dc:15:48:3b:2f:3f:58:aa:d5:ae:23:cd:e2:
         b8:56:f0:de:7f:9c:cb:f7:c7:71:ae:07:a8:66:a7:a6:e4:85:
         eb:92:83:a8:65:f6:6c:c9:ba:4f:4c:82:94:93:f4:46:59:e8:
         09:58:df:ec:dd:bb:da:13:98:73:99:21:12:d0:65:14:57:c6:
         5b:21:ca:df:68:a1:7b:29:f3:eb:f6:3a:5a:7d:2a:36:3b:1f:
         a0:14:a9:e8:d2:4b:3d:a8:e5:ed:65:4a:0e:77:2a:64:b5:2e:
         ec:ef:27:f1:58:ae:59:ba:ab:e0:7f:8f:e9:4d:14:ea:4f:36:
         f8:eb:68:eb:d1:3e:c6:14:06:7b:8c:4a:73:66:ab:85:d7:8a:
         2e:1d:ec:56:c0:9a:a3:21:73:33:ae:07:b4:59:4c:35:66:4e:
         ca:97:92:e0:a0:e8:0f:b9:59:43:06:c8:b3:d7:7e:76:c7:b8:
         e0:2e:75:46:21:f3:b1:69:66:2d:ba:a8:02:69:d4:da:a0:79:
         10:c3:91:00:91:88:a0:da:d8:42:eb:c4:7c:37:8d:8c:f8:cb:
         fc:a1:ff:ab:14:c1:02:c8:1d:44:de:9e:8c:e2:3a:32:9e:57:
         c2:a6:91:18:e5:c7:9e:97:c1:18:0d:cc:65:5e:07:b9:90:67:
         7e:c8:5a:c5:a7:51:d5:de:7e:fb:54:3b:80:81:05:cf:ab:ae:
         69:ea:81:46:36:7b:9c:95:dc:a9:3c:cc:08:56:f2:49:ff:62:
         fd:5f:09:fd:33:3a:78:2c:fd:8b:3f:80:c4:d1:bc:36:85:7a:
         38:8d:47:a7:1e:a3:be:73:70:29:d7:71:82:ed:5e:6c:e4:26:
         8b:fb:26:b5:1c:43:3e:c2:ef:5b:24:d0:e0:d8:e9:a7:8f:92:
         f9:3f:7a:7b:60:18:3e:ad
-----BEGIN CERTIFICATE-----
MIIFSjCCAzKgAwIBAgIEEjRWejANBgkqhkiG9w0BAQsFADAnMSUwIwYDVQQDDBxT
UksxX3NoYTI1Nl80MDk2XzY1NTM3X3YzX2NhMB4XDTE3MDgxMTIxNTQ0NVoXDTI3
MDgwOTIxNTQ0NVowKjEoMCYGA1UEAwwfSU1HMV8xX3NoYTI1Nl80MDk2XzY1NTM3
X3YzX3VzcjCCAiIwDQYJKoZIhvcNAQEBBQADggIPADCCAgoCggIBAO8EAeOQtUln
v0YwzSZ7sCXhIGVH5Cp3hbYcLohUGfzEhaHExpBClEMDvxKzH7dTTfklPcu+d09W
Me9sHWUrujoBDG6uSPhrpUIaQNU2ELYmbHS/nW3c2+qyt17SaoAQ8wNX6amuG+Lq
p4ti0QwWoc0/heFTNcycXizHfG7KpKp+ebcUEamvZ5XHSKaHPnKN+VB1h0yZIz6B
LmhrFcJfr3OtJ8j7L858nlHczNCwxhkEBW7fB0g5S3WgAz2j5DYPGBm08ZuDeFIt
aFrrhnwyKU7m6HsG/DYATp2OxuhnrMegSeBSSj0cmZcMEI7K9dkCA26iND1k92NM
Zxr2fTcA2g8twprvupM6R0H68B0OgKj0lq7iXxpI+R/9j3KveQxXMcD1UO1AnUdj
6AtGKplGeIhtQDmPgD1XMbYiLNby1Sg2UkkoTRezZ+0LjweZFiTaqXHw+ZBrYKqx
FvqLFn2NZtHq4MQjjRR+cioZaynj4ZtAz8CuKo5kUumshLh83sT2cs4dWYdopurT
8xa5QriD6dKeah0VtEz8bTPG+WfsxrmMGwH7hIQTajLJVexSbpYxn21eSiYOZEGO
qesw0zuYVjn5Z7NfcEJXm+0maOKcwcSfYwwuj/rTpNHjPzkuxJGgVIu9O+p3QqcR
wOsnYC5oVGUlpq1RxKRWMCwMbmn9qPalAgMBAAGjezB5MAkGA1UdEwQCMAAwLAYJ
YIZIAYb4QgENBB8WHU9wZW5TU0wgR2VuZXJhdGVkIENlcnRpZmljYXRlMB0GA1Ud
DgQWBBSl14nLj/+kYc60BEfrV9y9TSbGjjAfBgNVHSMEGDAWgBSmx0uKaR+YesX7
D+Qvk1A0zYPk4DANBgkqhkiG9w0BAQsFAAOCAgEANyfgRF8+SfLm/RytlHnxFKtv
w43Qe1Zm1d66otsZiIUB/vv6LlAhNxRE9BdlHCkqa9h2qRgUfDJAhcd7bGyjqMzA
CloGvMUAnHADfw4Jy5ZKI5fWq0ZHF0AWkdMOPT+M5NXusOvSi5lbs5TXCxVEpvKa
nj6D0dxmPaZM2pU59MxHmdjWM2WRvNbYolGrUl249DrqKP/3LNqsxkRC5iBounst
nij9dtDcFUg7Lz9YqtWuI83iuFbw3n+cy/fHca4HqGanpuSF65KDqGX2bMm6T0yC
lJP0RlnoCVjf7N272hOYc5khEtBlFFfGWyHK32iheynz6/Y6Wn0qNjsfoBSp6NJL
Pajl7WVKDncqZLUu7O8n8ViuWbqr4H+P6U0U6k82+Oto69E+xhQGe4xKc2arhdeK
Lh3sVsCaoyFzM64HtFlMNWZOypeS4KDoD7lZQwbIs9d+dse44C51RiHzsWlmLbqo
AmnU2qB5EMORAJGIoNrYQuvEfDeNjPjL/KH/qxTBAsgdRN6ejOI6Mp5XwqaRGOXH
npfBGA3MZV4HuZBnfshaxadR1d5++1Q7gIEFz6uuaeqBRjZ7nJXcqTzMCFbySf9i
/V8J/TM6eCz9iz+AxNG8NoV6OI1Hpx6jvnNwKddxgu1ebOQmi/smtRxDPsLvWyTQ
4Njpp4+S+T96e2AYPq0=
-----END CERTIFICATE-----
