Certificate:
    Data:
        Version: 3 (0x2)
        Serial Number: 305419901 (0x1234567d)
    Signature Algorithm: sha256WithRSAEncryption
        Issuer: CN=SRK2_sha256_4096_65537_v3_ca
        Validity
            Not Before: Aug 11 21:54:47 2017 GMT
            Not After : Aug  9 21:54:47 2027 GMT
        Subject: CN=IMG2_1_sha256_4096_65537_v3_usr
        Subject Public Key Info:
            Public Key Algorithm: rsaEncryption
                Public-Key: (4096 bit)
                Modulus:
                    00:ea:d7:38:b7:91:4b:97:2a:02:b4:c5:2e:88:2b:
                    98:1b:d9:47:90:37:bb:94:64:c6:1e:3c:55:a8:ca:
                    ad:74:76:c1:26:38:ba:07:d2:0b:0b:3b:46:e4:c8:
                    8f:5d:56:84:24:26:0e:05:3c:e8:eb:74:10:86:53:
                    7d:cf:59:eb:ef:b7:16:39:89:68:44:8a:7b:97:f4:
                    14:a4:41:cb:3c:d5:a8:95:80:4f:51:52:be:1d:c5:
                    76:6f:2b:de:dc:20:13:a5:ac:58:56:a5:30:fd:c1:
                    a9:38:47:6b:7e:35:c3:ee:3d:20:5f:06:47:fb:fe:
                    50:df:a4:24:30:15:c5:f9:6c:46:23:22:e0:8e:a4:
                    f8:1f:cf:0a:5d:ad:38:a6:36:c6:f1:ab:53:79:f3:
                    da:c8:f9:0d:6f:64:0a:dc:81:70:71:d2:ef:79:81:
                    15:67:3e:17:69:91:db:0c:d5:ed:4d:80:46:42:ee:
                    9c:80:92:50:24:e2:d0:72:3e:14:dc:7c:19:aa:8e:
                    c1:73:fb:40:e9:0c:ff:bd:10:99:ed:1a:a0:83:e3:
                    2a:49:fb:50:25:f7:e3:a6:4e:30:39:a5:34:53:26:
                    b8:1e:c4:d2:8e:81:8f:ad:3e:e3:32:0f:f1:db:73:
                    4b:43:91:16:71:0b:ef:9b:63:03:aa:45:33:c3:78:
                    0a:ba:c9:e7:58:ad:6d:61:bf:f0:d6:d8:50:ce:7c:
                    83:56:72:c6:18:ae:f9:14:79:82:d4:c7:b0:02:53:
                    a7:bb:e2:6c:c8:3f:c7:29:ad:f8:35:df:a1:54:fe:
                    a7:96:78:1a:5a:98:a5:48:7c:67:d4:80:de:24:db:
                    f7:cd:5c:38:7d:11:3e:70:a0:be:5c:bf:ef:e9:8e:
                    6e:7f:ac:58:e5:e9:3e:db:a1:c6:dc:7b:f7:da:9c:
                    5b:79:5a:92:86:a1:11:f7:77:95:9f:a7:2d:15:03:
                    f4:38:b7:d3:07:b8:7e:5e:c1:c2:d5:61:eb:a7:96:
                    f7:d6:3a:43:68:95:08:50:e5:90:3e:72:87:a6:55:
                    3d:20:25:f5:57:53:e9:19:d9:2f:c2:71:21:9c:47:
                    ad:98:2e:92:08:2b:4d:3f:c8:35:37:00:05:6f:a2:
                    e0:70:44:c9:46:91:73:6a:53:57:b4:64:81:a0:80:
                    02:e2:82:62:80:e9:b2:51:80:e6:7c:c7:e2:7d:d4:
                    82:f8:18:f8:75:e0:8d:2d:6d:61:44:78:1c:06:a9:
                    59:ba:5b:f6:4a:52:81:fa:2d:1b:27:ea:49:43:86:
                    a3:2c:da:b0:d5:65:6d:cd:aa:d3:98:8a:7c:0e:14:
                    1c:2f:ba:46:9e:20:6a:be:52:73:a8:b2:df:89:31:
                    6f:6b:1b
                Exponent: 65537 (0x10001)
        X509v3 extensions:
            X509v3 Basic Constraints: 
                CA:FALSE
            Netscape Comment: 
                OpenSSL Generated Certificate
            X509v3 Subject Key Identifier: 
                5A:56:72:EE:18:7B:82:C0:AB:78:01:0F:64:8D:6C:98:6C:F9:47:2D
            X509v3 Authority Key Identifier: 
                keyid:83:DA:36:50:7E:42:32:ED:E0:05:9B:3B:9E:9D:0E:F4:D6:AB:D8:C7

    Signature Algorithm: sha256WithRSAEncryption
         66:eb:e9:d4:2b:91:98:1b:98:5e:24:5b:7f:6d:fd:d8:3b:06:
         da:c0:a7:22:b3:c1:20:08:c8:5d:b1:3e:c8:2f:77:3d:9d:45:
         c3:a2:87:f3:53:c5:ee:be:6b:94:30:74:db:a4:a9:fc:01:39:
         0e:37:a9:36:58:ce:42:9c:66:df:02:f8:3e:75:f0:a0:6d:8e:
         c5:2d:69:9c:fd:06:6a:50:8c:6d:04:c9:a0:4c:dd:fe:86:f1:
         7b:10:a4:7b:78:73:15:29:3b:03:61:31:f0:b8:43:c6:9a:03:
         ed:39:51:01:7a:53:e8:0a:fd:68:aa:05:7b:e9:d7:39:3c:0e:
         e0:03:65:c7:96:4f:6d:e2:f0:d9:9f:80:19:84:9d:e2:76:05:
         34:13:73:c1:cb:be:ad:b5:20:dd:ff:87:dd:53:c8:16:23:56:
         1c:40:83:68:9e:f2:30:50:31:b1:6c:1c:dc:f5:83:7a:e1:cf:
         b1:ba:05:02:c7:cb:9a:91:4f:a0:ca:80:c6:e6:02:fb:08:48:
         4e:7d:76:71:a4:c5:0d:35:0c:59:68:3d:b6:ac:69:47:b5:66:
         94:68:de:f5:c6:71:b9:6e:dd:39:51:8b:fe:ed:29:ac:bf:5b:
         fd:45:6e:a4:d2:01:1c:d2:70:c4:60:ba:da:e3:3d:05:11:94:
         d5:f6:13:29:e6:35:e9:06:57:f1:dd:91:75:fb:19:04:05:e6:
         f7:63:4c:ad:d0:90:fc:b9:bf:27:85:86:56:13:61:84:b0:50:
         a6:fd:d9:c5:86:9d:1b:e6:41:6f:e0:dd:86:c5:ed:34:91:13:
         6a:c2:29:5e:6d:d6:65:4a:1b:b3:a7:be:1e:6f:9c:a2:c9:26:
         c8:8c:fa:50:7e:70:51:0e:c1:39:d2:76:db:10:23:8d:98:f4:
         7c:ae:54:46:78:14:78:45:fc:1b:db:97:7b:60:5a:63:33:7b:
         c8:e6:d0:5e:58:72:78:4b:2a:81:36:09:fd:f0:21:8d:08:ca:
         2a:d2:ca:5b:d0:32:5d:5a:f0:2d:55:51:91:4f:7b:5b:cb:05:
         d5:06:fd:58:4b:50:1f:4b:e1:52:d6:ce:b4:28:99:4b:b0:e5:
         e0:f0:67:41:35:6e:c6:db:3c:b4:59:11:50:c0:fb:cd:f1:3e:
         00:be:b2:5e:1a:e0:14:76:fd:a2:ec:5f:13:f4:2f:7e:44:3e:
         b5:37:ce:e1:7d:72:1b:de:8b:1b:97:34:e5:81:43:69:22:cd:
         c9:44:28:3e:85:ac:87:00:aa:5a:28:d7:11:93:01:21:03:89:
         e5:cc:7a:a7:f0:fb:ce:06:b2:be:7a:09:d7:0a:cf:d7:42:09:
         88:33:a4:0a:90:1d:1b:e3
-----BEGIN CERTIFICATE-----
MIIFSjCCAzKgAwIBAgIEEjRWfTANBgkqhkiG9w0BAQsFADAnMSUwIwYDVQQDDBxT
UksyX3NoYTI1Nl80MDk2XzY1NTM3X3YzX2NhMB4XDTE3MDgxMTIxNTQ0N1oXDTI3
MDgwOTIxNTQ0N1owKjEoMCYGA1UEAwwfSU1HMl8xX3NoYTI1Nl80MDk2XzY1NTM3
X3YzX3VzcjCCAiIwDQYJKoZIhvcNAQEBBQADggIPADCCAgoCggIBAOrXOLeRS5cq
ArTFLogrmBvZR5A3u5Rkxh48VajKrXR2wSY4ugfSCws7RuTIj11WhCQmDgU86Ot0
EIZTfc9Z6++3FjmJaESKe5f0FKRByzzVqJWAT1FSvh3Fdm8r3twgE6WsWFalMP3B
qThHa341w+49IF8GR/v+UN+kJDAVxflsRiMi4I6k+B/PCl2tOKY2xvGrU3nz2sj5
DW9kCtyBcHHS73mBFWc+F2mR2wzV7U2ARkLunICSUCTi0HI+FNx8GaqOwXP7QOkM
/70Qme0aoIPjKkn7UCX346ZOMDmlNFMmuB7E0o6Bj60+4zIP8dtzS0ORFnEL75tj
A6pFM8N4CrrJ51itbWG/8NbYUM58g1Zyxhiu+RR5gtTHsAJTp7vibMg/xymt+DXf
oVT+p5Z4GlqYpUh8Z9SA3iTb981cOH0RPnCgvly/7+mObn+sWOXpPtuhxtx799qc
W3lakoahEfd3lZ+nLRUD9Di30we4fl7BwtVh66eW99Y6Q2iVCFDlkD5yh6ZVPSAl
9VdT6RnZL8JxIZxHrZgukggrTT/INTcABW+i4HBEyUaRc2pTV7RkgaCAAuKCYoDp
slGA5nzH4n3UgvgY+HXgjS1tYUR4HAapWbpb9kpSgfotGyfqSUOGoyzasNVlbc2q
05iKfA4UHC+6Rp4gar5Sc6iy34kxb2sbAgMBAAGjezB5MAkGA1UdEwQCMAAwLAYJ
YIZIAYb4QgENBB8WHU9wZW5TU0wgR2VuZXJhdGVkIENlcnRpZmljYXRlMB0GA1Ud
DgQWBBRaVnLuGHuCwKt4AQ9kjWyYbPlHLTAfBgNVHSMEGDAWgBSD2jZQfkIy7eAF
mzuenQ701qvYxzANBgkqhkiG9w0BAQsFAAOCAgEAZuvp1CuRmBuYXiRbf2392DsG
2sCnIrPBIAjIXbE+yC93PZ1Fw6KH81PF7r5rlDB026Sp/AE5DjepNljOQpxm3wL4
PnXwoG2OxS1pnP0GalCMbQTJoEzd/obxexCke3hzFSk7A2Ex8LhDxpoD7TlRAXpT
6Ar9aKoFe+nXOTwO4ANlx5ZPbeLw2Z+AGYSd4nYFNBNzwcu+rbUg3f+H3VPIFiNW
HECDaJ7yMFAxsWwc3PWDeuHPsboFAsfLmpFPoMqAxuYC+whITn12caTFDTUMWWg9
tqxpR7VmlGje9cZxuW7dOVGL/u0prL9b/UVupNIBHNJwxGC62uM9BRGU1fYTKeY1
6QZX8d2RdfsZBAXm92NMrdCQ/Lm/J4WGVhNhhLBQpv3ZxYadG+ZBb+DdhsXtNJET
asIpXm3WZUobs6e+Hm+coskmyIz6UH5wUQ7BOdJ22xAjjZj0fK5URngUeEX8G9uX
e2BaYzN7yObQXlhyeEsqgTYJ/fAhjQjKKtLKW9AyXVrwLVVRkU97W8sF1Qb9WEtQ
H0vhUtbOtCiZS7Dl4PBnQTVuxts8tFkRUMD7zfE+AL6yXhrgFHb9ouxfE/QvfkQ+
tTfO4X1yG96LG5c05YFDaSLNyUQoPoWshwCqWijXEZMBIQOJ5cx6p/D7zgayvnoJ
1wrP10IJiDOkCpAdG+M=
-----END CERTIFICATE-----
