Certificate:
    Data:
        Version: 3 (0x2)
        Serial Number: 305419907 (0x12345683)
    Signature Algorithm: sha256WithRSAEncryption
        Issuer: CN=SRK4_sha256_4096_65537_v3_ca
        Validity
            Not Before: Aug 11 21:54:51 2017 GMT
            Not After : Aug  9 21:54:51 2027 GMT
        Subject: CN=IMG4_1_sha256_4096_65537_v3_usr
        Subject Public Key Info:
            Public Key Algorithm: rsaEncryption
                Public-Key: (4096 bit)
                Modulus:
                    00:c9:36:9e:9a:2f:f9:84:3d:4e:30:4b:f8:b2:70:
                    2f:4d:e1:58:36:f6:4c:e6:e4:0d:e2:c7:60:02:ec:
                    26:d0:02:7b:4d:5e:ea:19:66:06:3d:99:06:2a:54:
                    22:5a:96:60:f6:ad:5b:dc:c4:dd:bf:77:95:a1:47:
                    fe:f7:09:a5:b4:91:ab:bd:3d:86:20:da:3a:35:bd:
                    22:70:a8:bc:77:82:19:71:15:cc:53:b7:e2:e4:93:
                    7c:cb:aa:f3:73:fc:69:bc:32:2c:6b:e1:0f:13:8d:
                    0b:ca:d2:55:cd:dc:9c:8c:ed:48:42:f6:6b:33:f9:
                    34:14:32:f0:71:6c:b9:cb:2f:3d:3b:83:3e:9e:15:
                    2a:b6:3c:be:3d:50:ce:73:be:9f:1c:28:72:ba:04:
                    ac:70:22:62:4d:2a:f4:fd:b1:a6:05:3b:bc:28:0b:
                    b5:91:e7:8c:8a:39:df:ce:f1:5a:db:b2:2d:c6:95:
                    a3:d2:74:ac:84:ec:71:e7:db:bf:bb:7f:cd:49:57:
                    b1:ae:c6:e9:f4:28:7a:5a:3b:0b:25:56:d9:fc:27:
                    ea:db:bb:9a:ff:9d:f8:6e:16:ff:0e:1f:87:8e:7c:
                    62:e3:12:4f:70:66:50:10:b4:a4:3d:aa:96:10:38:
                    47:7b:d1:b0:9c:a2:ef:14:02:7e:e7:2b:1f:7d:1f:
                    1b:3b:2e:df:0e:91:24:df:27:87:49:de:1f:d5:2a:
                    ea:8d:15:4b:7b:70:6c:b1:1c:eb:65:d8:ee:02:2b:
                    f2:5e:19:a4:2f:6d:83:81:b6:d0:96:62:53:44:78:
                    83:2f:24:f3:9b:3c:54:20:bf:69:2e:ce:f8:fe:17:
                    92:5d:e3:c0:b5:c7:a9:ea:95:af:6b:8b:1b:5f:88:
                    9e:78:26:20:7f:0e:43:2e:0e:16:ff:66:67:8a:00:
                    61:f1:c2:70:9b:3e:e0:05:e3:f5:b1:31:4c:16:f3:
                    7b:37:3e:74:64:35:72:4a:db:13:fa:aa:7f:e0:e4:
                    12:57:64:c3:da:61:5d:08:83:2d:82:18:41:70:0a:
                    73:67:9e:b5:61:5c:a9:a3:c9:79:d1:fc:f1:f2:7b:
                    41:50:34:b1:38:68:dc:84:98:30:73:3d:8c:b0:6a:
                    cc:b3:34:d1:6a:4e:21:df:5f:51:07:3f:4a:ea:9b:
                    cc:3f:02:bb:ad:b6:e2:2a:c7:75:4e:68:a8:00:25:
                    c1:42:a5:48:eb:c5:ff:73:c0:fb:72:78:b6:34:a3:
                    89:37:f7:5f:3f:15:61:11:c2:cb:05:56:d9:fb:20:
                    50:e8:e3:20:ce:26:34:b8:5a:25:eb:4d:24:eb:fe:
                    fa:92:8a:f6:c3:0d:fe:09:51:b3:84:e1:27:a0:e5:
                    2d:34:cb
                Exponent: 65537 (0x10001)
        X509v3 extensions:
            X509v3 Basic Constraints: 
                CA:FALSE
            Netscape Comment: 
                OpenSSL Generated Certificate
            X509v3 Subject Key Identifier: 
                54:1A:2B:9C:EF:59:A4:1B:FC:77:FC:76:DF:16:1F:A1:78:C3:DE:80
            X509v3 Authority Key Identifier: 
                keyid:62:1A:9C:12:B4:86:B3:B1:96:DD:22:87:1A:2A:99:EE:47:94:9D:5A

    Signature Algorithm: sha256WithRSAEncryption
         b6:3f:fb:9f:3e:ac:ea:bb:aa:83:64:37:d1:ef:0f:9e:dd:b7:
         03:06:05:0d:59:26:5b:55:9a:d9:9c:48:d7:a4:d2:b6:22:76:
         18:a6:f1:ee:8f:e3:50:b8:96:9b:47:cc:98:bc:37:ed:61:7b:
         14:21:6a:92:ca:1a:1d:f2:51:41:21:0a:99:10:cb:4b:a3:f5:
         f9:60:d6:27:3f:31:0f:9b:19:e4:b5:26:f1:26:3b:b0:a9:bf:
         05:1e:2e:b0:4e:4f:ed:15:76:67:d8:be:4c:a7:c7:58:4d:86:
         07:8d:f9:61:a7:67:56:23:25:b2:c8:9c:00:99:d9:c5:ea:d0:
         e7:38:3c:44:24:a5:4a:22:d2:12:b4:0d:7a:28:9e:f8:c4:f9:
         b5:57:91:63:d8:8b:87:46:57:63:b8:65:3e:66:e1:67:ef:7f:
         22:73:98:74:a9:55:f5:fb:dc:39:02:f2:6d:f2:bc:41:59:02:
         11:41:11:6c:76:ad:93:74:80:fd:a5:43:67:53:d0:dc:ed:df:
         ee:14:e2:0f:19:b9:04:c1:aa:c1:62:4f:89:56:3a:fb:28:f9:
         31:30:fa:81:ff:3c:7d:a5:33:98:ab:46:32:e0:c2:e0:b1:8e:
         20:1d:4f:f4:77:b3:3b:c9:af:66:3c:da:75:f4:c3:76:52:cf:
         3f:ab:72:ab:27:04:52:81:7d:05:7e:37:61:ad:c5:d1:3e:b5:
         d3:0a:ef:0f:c4:7e:47:a2:ae:8f:a8:28:33:ab:42:64:4b:a5:
         e8:1b:5d:77:59:98:79:09:83:20:0e:23:78:05:52:94:33:45:
         f4:27:b5:06:47:83:a2:0a:26:9a:bf:1a:d5:0c:03:fc:82:16:
         01:e6:79:ad:7d:1f:3c:25:22:7f:a8:ac:b3:75:a8:a0:32:9c:
         14:3a:01:6c:be:be:a9:fe:67:ee:d1:36:15:d0:d9:9d:82:26:
         95:dc:69:5f:7e:9c:15:db:1c:df:37:49:97:7a:eb:80:20:3b:
         21:7a:4c:1e:39:ee:87:04:5e:2c:f1:63:af:0a:44:e7:76:00:
         36:ba:85:2e:76:0f:ca:4e:de:64:6e:0f:0d:1c:df:35:3e:0e:
         62:8e:98:40:aa:4e:7a:f3:38:8e:82:99:37:cf:7e:e2:f6:af:
         fa:3a:ee:59:a6:50:11:69:eb:a4:4a:8a:b8:35:3a:0d:18:20:
         60:b2:0b:12:96:09:33:b6:dd:d7:84:2d:c5:c0:b0:c6:01:8f:
         aa:3b:a6:2c:2e:9e:e7:c9:ea:fa:53:5d:c1:ad:e2:1e:d4:2a:
         a5:4e:4a:82:67:35:42:fa:64:58:c2:23:66:f4:72:6f:5d:a5:
         6e:c8:bf:47:69:96:54:f8
-----BEGIN CERTIFICATE-----
MIIFSjCCAzKgAwIBAgIEEjRWgzANBgkqhkiG9w0BAQsFADAnMSUwIwYDVQQDDBxT
Uks0X3NoYTI1Nl80MDk2XzY1NTM3X3YzX2NhMB4XDTE3MDgxMTIxNTQ1MVoXDTI3
MDgwOTIxNTQ1MVowKjEoMCYGA1UEAwwfSU1HNF8xX3NoYTI1Nl80MDk2XzY1NTM3
X3YzX3VzcjCCAiIwDQYJKoZIhvcNAQEBBQADggIPADCCAgoCggIBAMk2npov+YQ9
TjBL+LJwL03hWDb2TObkDeLHYALsJtACe01e6hlmBj2ZBipUIlqWYPatW9zE3b93
laFH/vcJpbSRq709hiDaOjW9InCovHeCGXEVzFO34uSTfMuq83P8abwyLGvhDxON
C8rSVc3cnIztSEL2azP5NBQy8HFsucsvPTuDPp4VKrY8vj1QznO+nxwocroErHAi
Yk0q9P2xpgU7vCgLtZHnjIo5387xWtuyLcaVo9J0rITscefbv7t/zUlXsa7G6fQo
elo7CyVW2fwn6tu7mv+d+G4W/w4fh458YuMST3BmUBC0pD2qlhA4R3vRsJyi7xQC
fucrH30fGzsu3w6RJN8nh0neH9Uq6o0VS3twbLEc62XY7gIr8l4ZpC9tg4G20JZi
U0R4gy8k85s8VCC/aS7O+P4Xkl3jwLXHqeqVr2uLG1+InngmIH8OQy4OFv9mZ4oA
YfHCcJs+4AXj9bExTBbzezc+dGQ1ckrbE/qqf+DkEldkw9phXQiDLYIYQXAKc2ee
tWFcqaPJedH88fJ7QVA0sTho3ISYMHM9jLBqzLM00WpOId9fUQc/SuqbzD8Cu622
4irHdU5oqAAlwUKlSOvF/3PA+3J4tjSjiTf3Xz8VYRHCywVW2fsgUOjjIM4mNLha
JetNJOv++pKK9sMN/glRs4ThJ6DlLTTLAgMBAAGjezB5MAkGA1UdEwQCMAAwLAYJ
YIZIAYb4QgENBB8WHU9wZW5TU0wgR2VuZXJhdGVkIENlcnRpZmljYXRlMB0GA1Ud
DgQWBBRUGiuc71mkG/x3/HbfFh+heMPegDAfBgNVHSMEGDAWgBRiGpwStIazsZbd
IocaKpnuR5SdWjANBgkqhkiG9w0BAQsFAAOCAgEAtj/7nz6s6ruqg2Q30e8Pnt23
AwYFDVkmW1Wa2ZxI16TStiJ2GKbx7o/jULiWm0fMmLw37WF7FCFqksoaHfJRQSEK
mRDLS6P1+WDWJz8xD5sZ5LUm8SY7sKm/BR4usE5P7RV2Z9i+TKfHWE2GB435Yadn
ViMlssicAJnZxerQ5zg8RCSlSiLSErQNeiie+MT5tVeRY9iLh0ZXY7hlPmbhZ+9/
InOYdKlV9fvcOQLybfK8QVkCEUERbHatk3SA/aVDZ1PQ3O3f7hTiDxm5BMGqwWJP
iVY6+yj5MTD6gf88faUzmKtGMuDC4LGOIB1P9HezO8mvZjzadfTDdlLPP6tyqycE
UoF9BX43Ya3F0T610wrvD8R+R6Kuj6goM6tCZEul6Btdd1mYeQmDIA4jeAVSlDNF
9Ce1BkeDogommr8a1QwD/IIWAeZ5rX0fPCUif6iss3WooDKcFDoBbL6+qf5n7tE2
FdDZnYImldxpX36cFdsc3zdJl3rrgCA7IXpMHjnuhwReLPFjrwpE53YANrqFLnYP
yk7eZG4PDRzfNT4OYo6YQKpOevM4joKZN89+4vav+jruWaZQEWnrpEqKuDU6DRgg
YLILEpYJM7bd14QtxcCwxgGPqjumLC6e58nq+lNdwa3iHtQqpU5Kgmc1QvpkWMIj
ZvRyb12lbsi/R2mWVPg=
-----END CERTIFICATE-----
