Certificate:
    Data:
        Version: 3 (0x2)
        Serial Number: 305419902 (0x1234567e)
    Signature Algorithm: sha256WithRSAEncryption
        Issuer: CN=CA1_sha256_4096_65537_v3_ca
        Validity
            Not Before: Aug 11 21:54:48 2017 GMT
            Not After : Aug  9 21:54:48 2027 GMT
        Subject: CN=SRK3_sha256_4096_65537_v3_ca
        Subject Public Key Info:
            Public Key Algorithm: rsaEncryption
                Public-Key: (4096 bit)
                Modulus:
                    00:a5:c6:ce:26:7f:52:51:c8:33:10:e9:66:46:3b:
                    a8:1a:f1:49:00:01:6c:3d:2a:9c:04:57:08:c9:28:
                    47:f7:a5:1f:8f:ec:58:3a:06:60:d6:dc:75:3d:2f:
                    f1:61:54:5c:e2:d7:14:a9:fb:06:3f:63:bd:61:bb:
                    84:07:02:5c:be:9d:0a:29:19:34:0f:43:6b:fe:76:
                    06:c7:2e:a7:08:f2:1f:63:ad:a2:5e:39:9b:3c:8e:
                    b0:71:3c:e8:8e:b3:66:49:8a:72:7a:6a:60:83:15:
                    df:02:cb:32:1c:4d:4d:36:bf:e8:ab:00:29:2c:33:
                    c4:dd:bf:34:b8:08:6d:70:25:05:5c:77:e5:4c:d3:
                    df:73:9e:7e:a5:33:cc:53:7e:e8:8b:cc:85:bc:f8:
                    3e:e5:f3:b8:0f:b2:a2:66:cc:68:90:2a:b6:17:ac:
                    73:8d:a2:33:06:04:03:c7:97:2d:df:77:b2:63:48:
                    2d:bf:f0:5e:06:15:6b:e0:c0:02:2c:8a:e5:6d:9d:
                    45:a1:2c:d1:df:11:6f:ac:cd:f3:fa:91:52:54:6c:
                    a2:bf:39:d7:02:a4:ef:47:ee:69:d6:8a:02:ba:b0:
                    94:e7:0b:bb:65:ff:5c:bd:1d:17:75:6a:f6:32:d3:
                    be:58:d5:1f:2c:fd:0a:7f:0d:fe:fd:b2:f8:7d:10:
                    eb:f0:ec:e8:00:7a:d6:0d:a2:1f:df:50:44:ec:93:
                    84:f7:7a:19:82:5c:cb:b0:a4:09:da:30:ca:f9:3b:
                    01:e6:73:f1:6a:ce:5a:be:af:5a:63:98:e3:81:db:
                    88:18:b5:52:53:e5:6d:14:f7:d9:8e:d3:61:d9:f4:
                    ea:b0:fe:99:df:6f:e0:e5:72:1f:ba:82:85:c2:5c:
                    07:4f:d3:31:76:41:1b:f8:b7:82:6f:9c:68:c6:4a:
                    10:fb:08:02:cf:50:72:f9:82:a1:15:8d:3d:26:1c:
                    82:4b:3f:4f:e6:ae:bb:3a:af:75:c6:cb:97:f5:32:
                    05:fb:61:0e:c8:04:42:ec:3c:a2:11:41:62:f0:68:
                    df:4e:85:05:ec:76:95:1e:ba:ee:bb:3c:9c:7e:61:
                    a3:ef:4b:dc:9d:a0:c3:ea:6d:83:b1:2e:10:6e:5e:
                    81:aa:90:fe:11:f8:bb:ef:89:3c:7a:f3:fe:54:13:
                    1c:6a:a9:71:95:6e:82:36:99:6a:d3:39:dd:bb:37:
                    80:2e:73:0d:07:6a:d2:ff:09:35:f3:6e:90:46:c0:
                    76:85:2d:8c:72:85:ef:94:eb:e6:e8:8f:c6:c2:19:
                    4c:a1:d5:7a:65:e2:47:3e:fc:80:13:74:d2:43:50:
                    48:7f:f6:2a:e3:6a:cf:6f:c5:e6:62:8f:cf:a7:f5:
                    a0:8b:33
                Exponent: 65537 (0x10001)
        X509v3 extensions:
            X509v3 Subject Key Identifier: 
                FD:A3:98:67:41:C8:A6:2F:01:9E:2C:F2:B0:A9:EA:AE:05:3C:CC:A0
            X509v3 Authority Key Identifier: 
                keyid:7F:51:8A:C3:F7:3A:B4:88:A6:C7:3F:91:1F:E9:D8:C0:97:9A:44:E4
                DirName:/CN=CA1_sha256_4096_65537_v3_ca
                serial:ED:08:74:6A:44:B4:82:45

            X509v3 Basic Constraints: critical
                CA:TRUE
            X509v3 Key Usage: 
                Certificate Sign
    Signature Algorithm: sha256WithRSAEncryption
         0e:49:0a:85:54:5c:cf:20:83:63:c6:c9:a8:76:45:29:1f:4b:
         2f:b3:45:23:22:19:6a:d7:95:90:93:fb:91:e7:d5:12:55:2d:
         71:b5:a2:83:6b:1e:ec:a1:59:2c:eb:1c:a7:d7:c0:08:e8:13:
         88:09:5a:4d:c2:5b:47:34:15:38:a6:60:2b:fe:cc:60:4a:bc:
         26:97:c3:fd:af:9c:db:52:cd:da:b6:6c:16:f4:0a:f9:15:3c:
         ed:7e:ce:64:f2:73:44:5d:e2:a1:8c:b2:f3:ba:96:fb:f4:bf:
         16:95:0c:04:9f:65:1e:61:6b:b3:d0:5d:4c:47:3a:97:8a:a1:
         bc:e5:44:79:0c:e6:06:a7:64:ef:9d:ae:cb:db:c8:18:9d:e3:
         aa:99:f1:e1:b7:ec:c8:2a:22:c2:e5:6d:45:ce:65:ff:29:5a:
         ab:67:ab:18:1e:5e:1c:cd:98:65:c3:88:db:97:f5:aa:cd:ed:
         18:c2:cc:70:d9:7a:50:11:7d:0d:9e:9b:3a:9f:4c:96:0d:83:
         b8:61:b9:4c:a6:30:f4:a8:f3:db:96:c3:cb:61:73:de:49:8f:
         f2:e2:cc:15:a0:d6:c4:5d:e9:77:03:61:88:99:d2:56:98:3e:
         1a:fd:86:56:99:46:4c:50:85:2e:e1:40:93:03:e1:42:09:4e:
         1c:f7:15:82:7c:69:bb:ac:8c:82:6e:61:e6:f5:af:ce:d9:39:
         b8:84:90:a3:97:58:55:dd:60:b2:b3:b8:01:0c:68:6f:07:17:
         34:47:35:4b:8d:7c:9e:47:ad:53:e1:10:c9:e2:b5:6c:03:fe:
         ee:73:60:75:3c:29:b9:cf:de:82:59:53:e2:da:3f:61:6a:e9:
         b6:0d:9e:ab:08:01:28:ab:d4:1a:29:96:95:c8:ee:1f:ac:8d:
         17:e7:c5:57:98:3b:8a:84:b4:e6:c4:3a:aa:9c:a8:a3:8e:08:
         d8:e8:e9:85:53:f6:7b:8c:91:70:ce:b9:e9:71:2c:97:54:c6:
         f3:38:81:20:69:6c:2c:eb:a0:c6:33:ee:4b:70:32:69:fb:ad:
         ef:12:1c:8b:85:0e:ab:9f:bd:5e:b2:22:0a:8f:73:bf:2e:52:
         64:c4:44:87:ea:69:69:a4:68:ab:71:de:bd:94:51:9a:ae:d6:
         fc:2f:b4:90:be:d9:b1:e2:46:f6:62:9c:1f:76:53:35:f7:67:
         66:5d:24:98:78:52:70:4e:b0:d5:fe:a5:55:08:ef:4c:e4:9f:
         93:fa:85:05:0c:ce:09:51:ce:30:04:d8:01:b9:ad:55:ff:92:
         c7:81:64:71:40:8a:6b:09:f0:b5:a3:6e:16:94:58:c8:5a:e3:
         84:1f:c7:ae:b0:59:14:53
-----BEGIN CERTIFICATE-----
MIIFZDCCA0ygAwIBAgIEEjRWfjANBgkqhkiG9w0BAQsFADAmMSQwIgYDVQQDFBtD
QTFfc2hhMjU2XzQwOTZfNjU1MzdfdjNfY2EwHhcNMTcwODExMjE1NDQ4WhcNMjcw
ODA5MjE1NDQ4WjAnMSUwIwYDVQQDDBxTUkszX3NoYTI1Nl80MDk2XzY1NTM3X3Yz
X2NhMIICIjANBgkqhkiG9w0BAQEFAAOCAg8AMIICCgKCAgEApcbOJn9SUcgzEOlm
RjuoGvFJAAFsPSqcBFcIyShH96Ufj+xYOgZg1tx1PS/xYVRc4tcUqfsGP2O9YbuE
BwJcvp0KKRk0D0Nr/nYGxy6nCPIfY62iXjmbPI6wcTzojrNmSYpyempggxXfAssy
HE1NNr/oqwApLDPE3b80uAhtcCUFXHflTNPfc55+pTPMU37oi8yFvPg+5fO4D7Ki
ZsxokCq2F6xzjaIzBgQDx5ct33eyY0gtv/BeBhVr4MACLIrlbZ1FoSzR3xFvrM3z
+pFSVGyivznXAqTvR+5p1ooCurCU5wu7Zf9cvR0XdWr2MtO+WNUfLP0Kfw3+/bL4
fRDr8OzoAHrWDaIf31BE7JOE93oZglzLsKQJ2jDK+TsB5nPxas5avq9aY5jjgduI
GLVSU+VtFPfZjtNh2fTqsP6Z32/g5XIfuoKFwlwHT9MxdkEb+LeCb5xoxkoQ+wgC
z1By+YKhFY09JhyCSz9P5q67Oq91xsuX9TIF+2EOyARC7DyiEUFi8GjfToUF7HaV
HrruuzycfmGj70vcnaDD6m2DsS4Qbl6BqpD+Efi774k8evP+VBMcaqlxlW6CNplq
0znduzeALnMNB2rS/wk1826QRsB2hS2McoXvlOvm6I/GwhlModV6ZeJHPvyAE3TS
Q1BIf/Yq42rPb8XmYo/Pp/WgizMCAwEAAaOBmDCBlTAdBgNVHQ4EFgQU/aOYZ0HI
pi8BnizysKnqrgU8zKAwVgYDVR0jBE8wTYAUf1GKw/c6tIimxz+RH+nYwJeaROSh
KqQoMCYxJDAiBgNVBAMUG0NBMV9zaGEyNTZfNDA5Nl82NTUzN192M19jYYIJAO0I
dGpEtIJFMA8GA1UdEwEB/wQFMAMBAf8wCwYDVR0PBAQDAgIEMA0GCSqGSIb3DQEB
CwUAA4ICAQAOSQqFVFzPIINjxsmodkUpH0svs0UjIhlq15WQk/uR59USVS1xtaKD
ax7soVks6xyn18AI6BOICVpNwltHNBU4pmAr/sxgSrwml8P9r5zbUs3atmwW9Ar5
FTztfs5k8nNEXeKhjLLzupb79L8WlQwEn2UeYWuz0F1MRzqXiqG85UR5DOYGp2Tv
na7L28gYneOqmfHht+zIKiLC5W1FzmX/KVqrZ6sYHl4czZhlw4jbl/Wqze0Ywsxw
2XpQEX0Nnps6n0yWDYO4YblMpjD0qPPblsPLYXPeSY/y4swVoNbEXel3A2GImdJW
mD4a/YZWmUZMUIUu4UCTA+FCCU4c9xWCfGm7rIyCbmHm9a/O2Tm4hJCjl1hV3WCy
s7gBDGhvBxc0RzVLjXyeR61T4RDJ4rVsA/7uc2B1PCm5z96CWVPi2j9haum2DZ6r
CAEoq9QaKZaVyO4frI0X58VXmDuKhLTmxDqqnKijjgjY6OmFU/Z7jJFwzrnpcSyX
VMbzOIEgaWws66DGM+5LcDJp+63vEhyLhQ6rn71esiIKj3O/LlJkxESH6mlppGir
cd69lFGartb8L7SQvtmx4kb2YpwfdlM192dmXSSYeFJwTrDV/qVVCO9M5J+T+oUF
DM4JUc4wBNgBua1V/5LHgWRxQIprCfC1o24WlFjIWuOEH8eusFkUUw==
-----END CERTIFICATE-----
