Certificate:
    Data:
        Version: 3 (0x2)
        Serial Number: 305419905 (0x12345681)
    Signature Algorithm: sha256WithRSAEncryption
        Issuer: CN=CA1_sha256_4096_65537_v3_ca
        Validity
            Not Before: Aug 11 21:54:49 2017 GMT
            Not After : Aug  9 21:54:49 2027 GMT
        Subject: CN=SRK4_sha256_4096_65537_v3_ca
        Subject Public Key Info:
            Public Key Algorithm: rsaEncryption
                Public-Key: (4096 bit)
                Modulus:
                    00:d1:2f:41:ef:b6:fa:0a:4a:21:80:c4:c2:6a:ac:
                    05:45:87:92:5f:99:d5:88:e1:66:be:53:cd:62:08:
                    0d:00:17:02:0c:7e:a4:a3:14:b7:8a:13:67:c8:d7:
                    7a:0a:49:31:ed:76:13:2b:8a:3b:0d:5a:48:e0:3e:
                    53:a9:87:4d:3b:25:b1:f7:dc:f7:92:32:6c:95:36:
                    a8:d9:b8:bd:69:e4:e0:36:74:3d:e6:11:2a:07:78:
                    be:ee:aa:01:c7:5f:60:e7:34:fa:17:ca:6f:9a:91:
                    47:04:33:17:98:08:eb:23:b9:c1:33:f0:43:60:85:
                    e9:7d:54:cf:3f:1b:06:c2:22:27:8c:4b:21:26:1f:
                    64:f9:7c:9d:41:94:e6:ce:8d:b8:64:24:5a:18:7b:
                    45:df:96:16:ef:d0:f9:0e:44:29:8f:9c:14:f3:f7:
                    61:79:cb:e1:39:ce:35:92:27:da:73:ff:29:fc:cd:
                    50:37:e3:0f:b6:1e:be:5d:83:2e:22:95:a2:68:e1:
                    09:7b:15:d1:17:fa:a2:14:38:76:1b:4a:90:d5:19:
                    28:7d:9e:46:a9:f6:f8:63:41:7b:c4:a2:4c:f8:58:
                    81:5a:61:64:7a:11:35:41:8c:8a:bf:27:b3:ae:f7:
                    9e:12:05:fb:cd:c3:71:4b:86:be:54:4f:d1:29:ea:
                    bf:72:29:56:a0:11:8a:4a:28:36:61:5e:90:7b:3c:
                    e6:e2:14:d4:91:c2:24:70:03:ea:ca:cf:0c:5e:16:
                    7d:40:d0:d8:66:04:ad:76:44:46:59:e2:cf:73:c1:
                    10:84:30:79:be:e3:0d:d5:7e:49:7a:a2:86:c7:76:
                    ba:d1:bc:ea:99:0f:06:3e:f3:58:4b:f1:e5:9f:ce:
                    94:d9:23:60:a8:c3:93:60:e1:e4:48:2e:08:11:aa:
                    90:95:c6:7e:6f:bf:71:d5:a7:a2:75:82:e2:be:f8:
                    fc:ee:0b:09:54:3d:c8:be:96:d2:eb:60:f1:fe:82:
                    52:9f:54:14:77:45:2d:0c:58:6a:66:1e:ec:1c:c4:
                    23:e9:0f:cd:96:30:f1:d6:b3:31:d4:50:87:7e:2b:
                    c9:09:7a:5b:2e:4f:af:36:ac:12:f4:62:e0:6a:94:
                    7c:f7:0f:b1:f4:1f:58:23:0d:6e:a9:1c:23:d9:10:
                    8b:dd:80:bf:fd:1c:83:66:4f:fe:53:cc:4a:69:7a:
                    c3:01:45:1f:e8:93:de:a0:7a:21:09:62:f1:9c:8d:
                    8a:42:20:48:ff:d6:88:ec:5f:13:d2:0f:2e:42:c6:
                    77:e3:85:09:1d:15:df:76:be:6e:b5:71:b2:8f:5c:
                    c2:4c:8e:42:42:00:90:75:05:7a:f6:c7:75:87:07:
                    9b:99:71
                Exponent: 65537 (0x10001)
        X509v3 extensions:
            X509v3 Subject Key Identifier: 
                62:1A:9C:12:B4:86:B3:B1:96:DD:22:87:1A:2A:99:EE:47:94:9D:5A
            X509v3 Authority Key Identifier: 
                keyid:7F:51:8A:C3:F7:3A:B4:88:A6:C7:3F:91:1F:E9:D8:C0:97:9A:44:E4
                DirName:/CN=CA1_sha256_4096_65537_v3_ca
                serial:ED:08:74:6A:44:B4:82:45

            X509v3 Basic Constraints: critical
                CA:TRUE
            X509v3 Key Usage: 
                Certificate Sign
    Signature Algorithm: sha256WithRSAEncryption
         4b:17:4c:94:2c:49:31:7e:fc:49:07:4e:b6:75:39:35:cc:49:
         99:7a:bc:a8:02:c1:fc:d4:6a:de:71:f0:90:37:34:85:eb:96:
         c5:b5:15:be:be:49:e0:02:75:62:6a:23:35:17:a9:ce:67:13:
         71:09:f7:a1:37:9b:96:1f:85:98:70:d4:ad:05:7d:f2:2c:c8:
         82:f2:b0:eb:16:e4:2d:aa:95:d9:1d:74:96:5e:0e:c7:b7:f0:
         59:69:33:64:78:d4:5a:1a:7c:cb:18:21:47:50:f4:59:ad:58:
         15:6c:8c:d4:c7:95:7f:4e:49:df:75:b5:e4:78:d7:b1:21:2c:
         4e:ca:b7:e1:99:cf:47:f4:df:f7:8b:b9:5b:79:c2:23:d3:49:
         4c:c1:00:a9:18:74:97:79:3b:0a:66:b3:37:3d:e7:30:c8:8d:
         0f:97:1e:4c:3e:95:24:76:fb:b6:c4:03:06:93:06:34:5d:e4:
         07:52:a6:2e:40:77:76:06:e4:4a:f6:da:ed:51:b5:c7:c3:4c:
         41:16:bb:6b:21:7f:3a:90:7a:44:49:97:b3:ef:8d:dd:39:6a:
         a2:78:96:d4:9c:5c:d8:27:49:16:d4:8e:b4:ce:19:6b:7f:20:
         54:eb:1c:e6:33:20:b5:33:36:21:cf:9c:5a:ef:54:04:f8:25:
         c1:0a:c5:c8:82:5c:fc:4e:1d:aa:31:9c:84:06:25:2f:78:7e:
         1a:dd:69:d2:63:a0:75:fe:b3:df:0a:5a:fc:a0:c8:49:1d:17:
         00:63:ba:eb:23:a1:03:57:0f:44:3f:45:ad:69:79:83:f4:ad:
         5b:1a:ef:5a:a6:e6:d3:11:60:cc:db:00:3a:d1:1f:f1:9c:06:
         3b:ed:8a:6c:fc:a4:9b:8e:46:b3:e9:60:c9:b9:c0:b4:e9:0a:
         a7:6c:92:ac:fb:03:7a:e2:0d:90:46:07:60:8d:74:71:0f:37:
         27:e5:e0:8f:0d:bf:56:a7:e4:82:41:bb:37:44:c6:fc:3e:8a:
         ab:53:70:7c:17:0d:03:f4:7f:4d:1a:33:d8:45:e3:84:2c:2f:
         5d:c1:d0:ae:6e:8e:62:1c:0b:b3:88:0b:75:ad:57:53:59:9a:
         21:e7:ff:bd:0f:96:c7:a8:6d:92:a7:4c:75:db:bb:94:64:55:
         cb:57:3f:40:2a:b5:dd:06:e8:01:3f:e3:65:00:06:e8:ba:7a:
         39:15:ff:0b:da:74:2c:b9:94:7b:20:d0:6b:66:32:88:a4:09:
         d4:62:6f:75:8f:d9:94:2e:ca:57:33:2f:e4:c7:35:38:9f:9d:
         e6:ff:38:b7:fe:33:24:dc:50:f5:a9:b2:59:3c:49:16:fb:53:
         16:00:79:02:57:9f:c7:4d
-----BEGIN CERTIFICATE-----
MIIFZDCCA0ygAwIBAgIEEjRWgTANBgkqhkiG9w0BAQsFADAmMSQwIgYDVQQDFBtD
QTFfc2hhMjU2XzQwOTZfNjU1MzdfdjNfY2EwHhcNMTcwODExMjE1NDQ5WhcNMjcw
ODA5MjE1NDQ5WjAnMSUwIwYDVQQDDBxTUks0X3NoYTI1Nl80MDk2XzY1NTM3X3Yz
X2NhMIICIjANBgkqhkiG9w0BAQEFAAOCAg8AMIICCgKCAgEA0S9B77b6CkohgMTC
aqwFRYeSX5nViOFmvlPNYggNABcCDH6koxS3ihNnyNd6Ckkx7XYTK4o7DVpI4D5T
qYdNOyWx99z3kjJslTao2bi9aeTgNnQ95hEqB3i+7qoBx19g5zT6F8pvmpFHBDMX
mAjrI7nBM/BDYIXpfVTPPxsGwiInjEshJh9k+XydQZTmzo24ZCRaGHtF35YW79D5
DkQpj5wU8/dhecvhOc41kifac/8p/M1QN+MPth6+XYMuIpWiaOEJexXRF/qiFDh2
G0qQ1RkofZ5Gqfb4Y0F7xKJM+FiBWmFkehE1QYyKvyezrveeEgX7zcNxS4a+VE/R
Keq/cilWoBGKSig2YV6Qezzm4hTUkcIkcAPqys8MXhZ9QNDYZgStdkRGWeLPc8EQ
hDB5vuMN1X5JeqKGx3a60bzqmQ8GPvNYS/Hln86U2SNgqMOTYOHkSC4IEaqQlcZ+
b79x1aeidYLivvj87gsJVD3IvpbS62Dx/oJSn1QUd0UtDFhqZh7sHMQj6Q/NljDx
1rMx1FCHfivJCXpbLk+vNqwS9GLgapR89w+x9B9YIw1uqRwj2RCL3YC//RyDZk/+
U8xKaXrDAUUf6JPeoHohCWLxnI2KQiBI/9aI7F8T0g8uQsZ344UJHRXfdr5utXGy
j1zCTI5CQgCQdQV69sd1hwebmXECAwEAAaOBmDCBlTAdBgNVHQ4EFgQUYhqcErSG
s7GW3SKHGiqZ7keUnVowVgYDVR0jBE8wTYAUf1GKw/c6tIimxz+RH+nYwJeaROSh
KqQoMCYxJDAiBgNVBAMUG0NBMV9zaGEyNTZfNDA5Nl82NTUzN192M19jYYIJAO0I
dGpEtIJFMA8GA1UdEwEB/wQFMAMBAf8wCwYDVR0PBAQDAgIEMA0GCSqGSIb3DQEB
CwUAA4ICAQBLF0yULEkxfvxJB062dTk1zEmZeryoAsH81GrecfCQNzSF65bFtRW+
vkngAnViaiM1F6nOZxNxCfehN5uWH4WYcNStBX3yLMiC8rDrFuQtqpXZHXSWXg7H
t/BZaTNkeNRaGnzLGCFHUPRZrVgVbIzUx5V/TknfdbXkeNexISxOyrfhmc9H9N/3
i7lbecIj00lMwQCpGHSXeTsKZrM3PecwyI0Plx5MPpUkdvu2xAMGkwY0XeQHUqYu
QHd2BuRK9trtUbXHw0xBFrtrIX86kHpESZez743dOWqieJbUnFzYJ0kW1I60zhlr
fyBU6xzmMyC1MzYhz5xa71QE+CXBCsXIglz8Th2qMZyEBiUveH4a3WnSY6B1/rPf
Clr8oMhJHRcAY7rrI6EDVw9EP0WtaXmD9K1bGu9apubTEWDM2wA60R/xnAY77Yps
/KSbjkaz6WDJucC06QqnbJKs+wN64g2QRgdgjXRxDzcn5eCPDb9Wp+SCQbs3RMb8
PoqrU3B8Fw0D9H9NGjPYReOELC9dwdCubo5iHAuziAt1rVdTWZoh5/+9D5bHqG2S
p0x127uUZFXLVz9AKrXdBugBP+NlAAbouno5Ff8L2nQsuZR7INBrZjKIpAnUYm91
j9mULspXMy/kxzU4n53m/zi3/jMk3FD1qbJZPEkW+1MWAHkCV5/HTQ==
-----END CERTIFICATE-----
