Certificate:
    Data:
        Version: 3 (0x2)
        Serial Number: 305419903 (0x1234567f)
    Signature Algorithm: sha256WithRSAEncryption
        Issuer: CN=SRK3_sha256_4096_65537_v3_ca
        Validity
            Not Before: Aug 11 21:54:48 2017 GMT
            Not After : Aug  9 21:54:48 2027 GMT
        Subject: CN=CSF3_1_sha256_4096_65537_v3_usr
        Subject Public Key Info:
            Public Key Algorithm: rsaEncryption
                Public-Key: (4096 bit)
                Modulus:
                    00:a0:59:5e:af:24:4f:16:53:cc:ff:63:aa:37:f9:
                    1c:13:7c:6f:a6:a9:e9:e7:4d:57:92:83:2d:96:ff:
                    e5:62:d8:0f:70:39:1f:3c:2b:a6:71:de:98:7b:8a:
                    5f:64:31:ec:6f:74:b8:98:b5:cb:f2:79:f9:67:74:
                    80:f1:bc:3f:5f:1f:10:88:72:7d:a7:40:e7:32:76:
                    5a:e8:1f:d4:b3:b9:9f:c9:64:13:a7:16:9a:68:10:
                    0a:e3:d4:ba:69:24:8e:b2:b5:4a:a1:b7:f7:86:0e:
                    c8:d9:ee:64:a3:73:65:f0:0c:33:2d:8d:6d:d5:33:
                    ce:9a:e1:c0:05:69:e4:69:a1:1b:cf:e9:fc:26:e2:
                    d6:04:f9:4d:93:2b:e3:d8:24:06:c8:12:da:d8:03:
                    a3:e7:f7:15:46:b7:fe:b7:a1:ad:99:9f:f4:b1:36:
                    cb:39:0b:2f:05:35:7d:e3:ee:0d:2a:26:0e:42:02:
                    97:bb:8e:4a:32:a7:99:7a:77:53:07:8e:09:6c:4e:
                    11:cf:db:74:6d:2e:1c:fa:80:9b:37:e7:47:5d:f3:
                    2e:6b:1c:20:26:4a:e0:03:7f:83:2f:c2:a7:0d:dc:
                    2f:7f:19:1a:a5:91:cb:35:b8:84:40:d5:f6:9d:92:
                    8c:ce:a9:e4:3e:42:5d:c8:a3:0e:3a:f6:0f:27:17:
                    fc:ac:74:98:07:ae:79:33:62:84:b3:fa:e1:7a:bc:
                    d6:51:9e:53:5f:c4:fe:95:da:8b:35:9a:03:86:7c:
                    a0:a0:c8:f6:06:b4:0d:16:34:df:d1:2f:2b:95:a3:
                    04:ea:e3:da:f4:46:a8:0e:89:a7:c3:aa:0e:b4:5a:
                    17:a7:2f:25:41:a9:94:cb:ae:4c:4a:fc:7f:73:1f:
                    b2:6c:a0:dc:75:87:1c:5b:8e:26:03:70:6b:05:b4:
                    2d:72:50:96:c1:e4:4f:3c:bd:99:d4:88:39:ab:29:
                    d7:62:2a:39:9e:69:90:cd:22:11:8a:fc:dd:06:2d:
                    ea:61:16:69:15:09:0e:c0:a5:ae:c9:1f:a7:50:b5:
                    95:03:14:c8:ea:30:8d:13:ea:0b:64:36:4f:5b:42:
                    59:07:b1:5f:23:98:77:95:ea:34:82:d4:0e:7a:ba:
                    49:ff:4e:9c:a9:3d:d6:f9:07:3a:83:fb:41:71:dd:
                    20:ec:90:24:28:d0:3a:cc:8e:09:5c:8b:22:b2:62:
                    1b:e3:7c:84:c1:df:ec:3f:44:ea:1e:a1:5d:18:2a:
                    49:74:df:3e:86:2e:4f:3e:9b:0f:ed:de:23:1a:11:
                    46:87:de:16:e4:f3:a3:78:96:06:e4:aa:9b:81:92:
                    80:90:33:3e:96:be:b6:4c:4d:91:9d:66:a7:20:4c:
                    0d:2a:cf
                Exponent: 65537 (0x10001)
        X509v3 extensions:
            X509v3 Basic Constraints: 
                CA:FALSE
            Netscape Comment: 
                OpenSSL Generated Certificate
            X509v3 Subject Key Identifier: 
                0F:C6:58:4F:63:DF:20:1A:56:92:E3:97:05:84:22:0E:75:8F:55:D6
            X509v3 Authority Key Identifier: 
                keyid:FD:A3:98:67:41:C8:A6:2F:01:9E:2C:F2:B0:A9:EA:AE:05:3C:CC:A0

    Signature Algorithm: sha256WithRSAEncryption
         5d:a3:85:92:0e:69:84:65:d8:f5:d6:91:13:ed:26:ae:8c:cc:
         ca:dc:4b:1e:03:d1:65:27:92:50:d8:7d:d3:82:90:b8:9e:31:
         98:56:61:8b:02:42:21:c1:5d:51:56:57:92:3b:16:3e:46:5e:
         94:67:1c:36:f5:02:0c:38:9e:fd:15:5b:0b:bf:ae:75:d9:df:
         96:f9:f2:f9:eb:cc:15:96:2b:9c:22:c6:1c:7c:30:ce:3d:a0:
         56:cc:7e:6c:05:79:9c:4d:73:ec:22:65:93:44:03:57:29:e9:
         b0:91:b5:dd:cb:db:d1:cf:d5:29:4c:87:61:bc:3f:e8:3d:37:
         bd:14:17:98:9d:47:89:a9:ba:01:29:33:3e:1b:9c:2a:38:cd:
         50:8c:0b:59:20:bb:ac:49:b6:1d:94:87:8b:2b:6b:b7:e1:a4:
         85:ea:b1:e5:d6:9f:7c:b8:ef:d4:94:47:19:35:74:d6:4c:fc:
         17:36:8d:8e:1a:ee:c6:d4:a6:b1:17:0d:cf:63:50:9e:e9:50:
         f6:df:3d:bd:d6:a8:56:0e:a5:cd:dd:98:94:d3:4c:b7:54:6a:
         a9:74:27:5a:68:ca:be:7e:c4:7f:3f:8b:99:73:6a:60:3d:11:
         d1:cc:a9:f3:32:7a:32:a9:f1:e9:68:c8:63:05:86:28:19:6a:
         8d:90:85:08:78:1c:2c:19:5e:b3:b4:0f:f0:bc:13:4a:6b:c2:
         e7:26:8c:9f:0f:d3:fe:d8:98:92:f6:b3:60:6f:9b:d0:4c:bc:
         7d:a0:91:e4:f4:3a:10:ea:d3:59:7d:86:26:cc:aa:98:ab:09:
         c4:4f:a5:dc:b6:4a:b8:1e:88:eb:63:46:d9:f0:d7:85:27:1b:
         ad:56:58:13:68:36:d4:e9:89:a4:74:1a:e2:5e:de:42:bb:6c:
         5b:d8:5f:ee:f5:c2:4d:c8:28:41:09:df:bb:19:08:9a:85:ac:
         cb:b7:8a:9f:75:91:b7:e0:60:a2:fd:50:88:01:5f:d6:56:70:
         30:d7:a3:cb:91:c1:a2:b3:39:22:04:9d:85:7c:eb:13:35:29:
         1a:a7:fb:99:0d:af:8e:e4:4f:a7:bf:62:d5:55:55:4d:cd:0e:
         e7:fc:56:8b:2e:c0:e8:89:29:2e:e0:75:70:56:4a:dc:30:b0:
         2b:da:0a:db:42:b6:a4:62:a7:c6:e3:8e:2d:08:9d:f3:93:5d:
         f4:6c:4c:26:a6:7f:c1:2f:d5:0a:42:6d:d9:b1:f2:73:4d:13:
         bf:4f:97:cb:6c:0b:4b:13:cb:80:0c:85:cb:e7:5f:66:0c:f7:
         97:2b:b5:93:1d:a1:ad:19:e7:f4:03:0b:2a:e4:5b:27:96:23:
         90:a8:6b:c0:84:73:19:f7
-----BEGIN CERTIFICATE-----
MIIFSjCCAzKgAwIBAgIEEjRWfzANBgkqhkiG9w0BAQsFADAnMSUwIwYDVQQDDBxT
UkszX3NoYTI1Nl80MDk2XzY1NTM3X3YzX2NhMB4XDTE3MDgxMTIxNTQ0OFoXDTI3
MDgwOTIxNTQ0OFowKjEoMCYGA1UEAwwfQ1NGM18xX3NoYTI1Nl80MDk2XzY1NTM3
X3YzX3VzcjCCAiIwDQYJKoZIhvcNAQEBBQADggIPADCCAgoCggIBAKBZXq8kTxZT
zP9jqjf5HBN8b6ap6edNV5KDLZb/5WLYD3A5HzwrpnHemHuKX2Qx7G90uJi1y/J5
+Wd0gPG8P18fEIhyfadA5zJ2Wugf1LO5n8lkE6cWmmgQCuPUumkkjrK1SqG394YO
yNnuZKNzZfAMMy2NbdUzzprhwAVp5GmhG8/p/Cbi1gT5TZMr49gkBsgS2tgDo+f3
FUa3/rehrZmf9LE2yzkLLwU1fePuDSomDkICl7uOSjKnmXp3UweOCWxOEc/bdG0u
HPqAmzfnR13zLmscICZK4AN/gy/Cpw3cL38ZGqWRyzW4hEDV9p2SjM6p5D5CXcij
Djr2DycX/Kx0mAeueTNihLP64Xq81lGeU1/E/pXaizWaA4Z8oKDI9ga0DRY039Ev
K5WjBOrj2vRGqA6Jp8OqDrRaF6cvJUGplMuuTEr8f3Mfsmyg3HWHHFuOJgNwawW0
LXJQlsHkTzy9mdSIOasp12IqOZ5pkM0iEYr83QYt6mEWaRUJDsClrskfp1C1lQMU
yOowjRPqC2Q2T1tCWQexXyOYd5XqNILUDnq6Sf9OnKk91vkHOoP7QXHdIOyQJCjQ
OsyOCVyLIrJiG+N8hMHf7D9E6h6hXRgqSXTfPoYuTz6bD+3eIxoRRofeFuTzo3iW
BuSqm4GSgJAzPpa+tkxNkZ1mpyBMDSrPAgMBAAGjezB5MAkGA1UdEwQCMAAwLAYJ
YIZIAYb4QgENBB8WHU9wZW5TU0wgR2VuZXJhdGVkIENlcnRpZmljYXRlMB0GA1Ud
DgQWBBQPxlhPY98gGlaS45cFhCIOdY9V1jAfBgNVHSMEGDAWgBT9o5hnQcimLwGe
LPKwqequBTzMoDANBgkqhkiG9w0BAQsFAAOCAgEAXaOFkg5phGXY9daRE+0mrozM
ytxLHgPRZSeSUNh904KQuJ4xmFZhiwJCIcFdUVZXkjsWPkZelGccNvUCDDie/RVb
C7+uddnflvny+evMFZYrnCLGHHwwzj2gVsx+bAV5nE1z7CJlk0QDVynpsJG13cvb
0c/VKUyHYbw/6D03vRQXmJ1Hiam6ASkzPhucKjjNUIwLWSC7rEm2HZSHiytrt+Gk
heqx5daffLjv1JRHGTV01kz8FzaNjhruxtSmsRcNz2NQnulQ9t89vdaoVg6lzd2Y
lNNMt1RqqXQnWmjKvn7Efz+LmXNqYD0R0cyp8zJ6Mqnx6WjIYwWGKBlqjZCFCHgc
LBles7QP8LwTSmvC5yaMnw/T/tiYkvazYG+b0Ey8faCR5PQ6EOrTWX2GJsyqmKsJ
xE+l3LZKuB6I62NG2fDXhScbrVZYE2g21OmJpHQa4l7eQrtsW9hf7vXCTcgoQQnf
uxkImoWsy7eKn3WRt+Bgov1QiAFf1lZwMNejy5HBorM5IgSdhXzrEzUpGqf7mQ2v
juRPp79i1VVVTc0O5/xWiy7A6IkpLuB1cFZK3DCwK9oK20K2pGKnxuOOLQid85Nd
9GxMJqZ/wS/VCkJt2bHyc00Tv0+Xy2wLSxPLgAyFy+dfZgz3lyu1kx2hrRnn9AML
KuRbJ5YjkKhrwIRzGfc=
-----END CERTIFICATE-----
