Certificate:
    Data:
        Version: 3 (0x2)
        Serial Number: 305419899 (0x1234567b)
    Signature Algorithm: sha256WithRSAEncryption
        Issuer: CN=CA1_sha256_4096_65537_v3_ca
        Validity
            Not Before: Aug 11 21:54:46 2017 GMT
            Not After : Aug  9 21:54:46 2027 GMT
        Subject: CN=SRK2_sha256_4096_65537_v3_ca
        Subject Public Key Info:
            Public Key Algorithm: rsaEncryption
                Public-Key: (4096 bit)
                Modulus:
                    00:bd:d8:5c:d8:e4:08:ed:15:c0:1d:06:e6:3d:0a:
                    5e:c1:0d:32:08:27:02:26:6a:79:e7:cb:4c:77:d6:
                    95:48:07:61:d7:e2:0a:2f:e2:43:ba:e1:f5:9c:03:
                    6c:cc:a8:7f:d5:70:f0:9c:89:75:dd:84:92:7a:e9:
                    29:a8:25:01:c1:e7:3c:05:2a:07:fe:02:c9:7a:9c:
                    a5:11:29:07:07:43:46:14:d4:c1:35:13:3b:27:18:
                    10:44:4f:5a:dd:49:70:5c:52:19:2b:f5:3d:88:c1:
                    8a:49:be:05:f0:97:ef:6b:65:29:a9:bd:ed:a2:22:
                    64:8f:e4:cc:95:81:c7:07:83:24:d7:e4:a8:d6:43:
                    b0:ef:b7:37:50:6b:0a:2b:99:00:4d:a6:67:66:2e:
                    20:a6:04:03:bd:c6:16:04:1e:09:53:18:1f:0a:e7:
                    dc:7a:90:2a:70:81:76:40:21:a8:09:b7:af:0a:a2:
                    da:74:7a:e7:80:36:0f:3d:11:5e:86:98:0c:c0:b6:
                    c8:9a:89:aa:c5:dc:35:b3:dd:d4:22:cf:24:c4:86:
                    c4:81:27:36:0a:a1:97:fd:4b:f6:3c:6e:92:5b:53:
                    b6:50:5b:e4:50:21:fd:4d:7c:00:b4:6c:5a:4f:5e:
                    c9:ba:fe:7b:a2:d7:3b:6d:39:e8:64:bc:4b:cc:38:
                    ba:b6:ad:13:bf:e4:f0:a7:e6:c5:3f:04:62:6f:ed:
                    74:2e:96:97:00:26:11:77:b3:17:e6:6d:c8:5b:d0:
                    ed:33:c2:42:9e:96:c0:87:ac:1a:f0:7e:b0:97:4a:
                    12:a0:f0:eb:ff:6a:22:cc:4c:13:ee:7c:4d:eb:f5:
                    82:6b:43:bc:a6:1f:4c:cb:09:aa:9b:43:9d:18:82:
                    79:fc:dd:1b:a1:7b:53:95:a0:32:e1:2d:d8:ed:b1:
                    39:cf:09:10:5a:0d:99:0e:ec:03:45:03:7e:a6:95:
                    86:d1:8d:59:43:44:de:f1:c5:67:d3:58:ea:63:58:
                    a3:50:bc:e7:7f:f4:09:13:d2:7a:e1:a4:74:69:f7:
                    7a:95:fd:13:a9:93:2d:74:5e:70:88:11:42:9b:c6:
                    ad:a6:33:60:7f:3b:5c:97:8d:24:3f:47:be:70:01:
                    55:0d:a1:34:1d:ff:4b:c1:4b:38:8e:2d:67:26:83:
                    57:11:d4:fe:b3:10:9b:00:99:79:23:65:1e:84:81:
                    75:92:42:b7:95:c0:8d:dd:8c:54:5f:db:40:72:4b:
                    db:77:03:1d:e7:e8:e2:6e:ea:59:69:ce:ea:04:c3:
                    a2:1e:fe:1c:3b:e8:38:ba:f3:81:92:cd:d1:7d:ac:
                    5b:75:56:fd:b7:55:35:94:c3:09:03:db:b4:4d:26:
                    80:84:17
                Exponent: 65537 (0x10001)
        X509v3 extensions:
            X509v3 Subject Key Identifier: 
                83:DA:36:50:7E:42:32:ED:E0:05:9B:3B:9E:9D:0E:F4:D6:AB:D8:C7
            X509v3 Authority Key Identifier: 
                keyid:7F:51:8A:C3:F7:3A:B4:88:A6:C7:3F:91:1F:E9:D8:C0:97:9A:44:E4
                DirName:/CN=CA1_sha256_4096_65537_v3_ca
                serial:ED:08:74:6A:44:B4:82:45

            X509v3 Basic Constraints: critical
                CA:TRUE
            X509v3 Key Usage: 
                Certificate Sign
    Signature Algorithm: sha256WithRSAEncryption
         2d:d7:d2:71:35:25:79:5f:57:3d:2f:dc:c7:a8:3b:f2:d0:68:
         ef:1c:c5:d4:b4:a9:f5:5b:e0:2f:ac:cc:75:5f:f5:9d:3f:e1:
         74:4e:04:b8:b3:06:1c:41:c7:13:38:d6:e6:76:eb:68:24:4d:
         b5:38:3d:d5:99:db:f7:a6:1d:db:95:5b:4d:0a:06:9f:12:24:
         e4:a4:5c:18:be:7a:f4:ea:50:54:a2:0a:bc:5f:08:fa:be:47:
         63:5e:f7:35:5a:a5:49:a2:ed:81:11:df:d4:35:31:56:84:83:
         07:3e:34:59:8c:6f:0e:f0:25:ca:7b:d8:fd:09:05:ec:ca:fb:
         a8:cb:a9:6d:4b:47:a1:28:d1:b3:2d:95:d0:37:8d:2c:1f:a0:
         c6:e5:67:3b:0c:8c:94:f5:2c:40:db:c2:a5:13:af:13:81:dc:
         74:42:82:c3:4e:4b:4d:81:eb:ab:96:e6:ca:58:75:ec:65:50:
         fc:b8:8b:a1:fc:51:e6:2e:ef:10:c2:bb:d1:cc:88:c2:a8:2c:
         d9:0f:59:80:49:cb:4e:00:ed:7c:16:a2:12:8c:29:ae:41:c3:
         86:82:51:3a:d0:a4:0e:38:38:1c:5d:4a:e5:30:8f:18:2a:bb:
         b3:fe:16:c8:5d:0f:8a:ea:7d:71:99:ea:4c:c7:88:d5:a1:75:
         6f:6e:05:f6:39:3e:f5:71:f3:b7:73:40:f9:5b:60:68:3e:b7:
         84:63:e5:a7:d0:c0:73:56:8b:5a:5e:0a:3d:d3:27:27:d7:3d:
         db:bd:c0:37:35:08:f4:12:f8:65:4b:54:01:8c:58:4d:b2:71:
         48:e1:bf:8e:3c:30:d7:66:72:23:07:ae:ee:d2:73:d7:4b:a0:
         ae:94:f2:24:b6:cf:c2:ff:b1:25:38:71:15:5c:62:5b:94:7b:
         db:16:a4:29:ad:03:f8:fd:05:dc:38:0c:d5:86:f4:c2:ea:13:
         e0:43:2a:78:b9:fc:e5:c4:ef:46:79:f9:f7:bb:a4:f0:97:00:
         7d:1a:08:86:20:ea:eb:4a:55:54:fe:47:eb:fe:59:78:1f:83:
         36:f3:a1:8a:20:08:1f:8c:af:45:2a:15:23:36:5a:34:d5:a6:
         8b:9a:78:bf:2a:d7:8f:79:1b:94:44:0e:e8:f0:da:aa:a7:4f:
         79:f1:a3:f9:49:f2:11:8d:52:4f:bc:06:15:43:9d:d4:dd:86:
         6f:6c:bc:53:f4:db:d7:ca:9a:8e:44:b0:08:f8:af:56:6b:f0:
         eb:43:a1:27:c5:b2:46:ce:81:58:2b:59:9a:76:17:c4:d0:ae:
         02:9a:38:97:94:00:73:a4:20:27:15:ad:a9:b7:06:18:84:3e:
         88:e3:d5:cc:96:88:19:e7
-----BEGIN CERTIFICATE-----
MIIFZDCCA0ygAwIBAgIEEjRWezANBgkqhkiG9w0BAQsFADAmMSQwIgYDVQQDFBtD
QTFfc2hhMjU2XzQwOTZfNjU1MzdfdjNfY2EwHhcNMTcwODExMjE1NDQ2WhcNMjcw
ODA5MjE1NDQ2WjAnMSUwIwYDVQQDDBxTUksyX3NoYTI1Nl80MDk2XzY1NTM3X3Yz
X2NhMIICIjANBgkqhkiG9w0BAQEFAAOCAg8AMIICCgKCAgEAvdhc2OQI7RXAHQbm
PQpewQ0yCCcCJmp558tMd9aVSAdh1+IKL+JDuuH1nANszKh/1XDwnIl13YSSeukp
qCUBwec8BSoH/gLJepylESkHB0NGFNTBNRM7JxgQRE9a3UlwXFIZK/U9iMGKSb4F
8Jfva2Upqb3toiJkj+TMlYHHB4Mk1+So1kOw77c3UGsKK5kATaZnZi4gpgQDvcYW
BB4JUxgfCufcepAqcIF2QCGoCbevCqLadHrngDYPPRFehpgMwLbImomqxdw1s93U
Is8kxIbEgSc2CqGX/Uv2PG6SW1O2UFvkUCH9TXwAtGxaT17Juv57otc7bTnoZLxL
zDi6tq0Tv+Twp+bFPwRib+10LpaXACYRd7MX5m3IW9DtM8JCnpbAh6wa8H6wl0oS
oPDr/2oizEwT7nxN6/WCa0O8ph9Mywmqm0OdGIJ5/N0boXtTlaAy4S3Y7bE5zwkQ
Wg2ZDuwDRQN+ppWG0Y1ZQ0Te8cVn01jqY1ijULznf/QJE9J64aR0afd6lf0TqZMt
dF5wiBFCm8atpjNgfztcl40kP0e+cAFVDaE0Hf9LwUs4ji1nJoNXEdT+sxCbAJl5
I2UehIF1kkK3lcCN3YxUX9tAckvbdwMd5+jibupZac7qBMOiHv4cO+g4uvOBks3R
faxbdVb9t1U1lMMJA9u0TSaAhBcCAwEAAaOBmDCBlTAdBgNVHQ4EFgQUg9o2UH5C
Mu3gBZs7np0O9Nar2McwVgYDVR0jBE8wTYAUf1GKw/c6tIimxz+RH+nYwJeaROSh
KqQoMCYxJDAiBgNVBAMUG0NBMV9zaGEyNTZfNDA5Nl82NTUzN192M19jYYIJAO0I
dGpEtIJFMA8GA1UdEwEB/wQFMAMBAf8wCwYDVR0PBAQDAgIEMA0GCSqGSIb3DQEB
CwUAA4ICAQAt19JxNSV5X1c9L9zHqDvy0GjvHMXUtKn1W+AvrMx1X/WdP+F0TgS4
swYcQccTONbmdutoJE21OD3Vmdv3ph3blVtNCgafEiTkpFwYvnr06lBUogq8Xwj6
vkdjXvc1WqVJou2BEd/UNTFWhIMHPjRZjG8O8CXKe9j9CQXsyvuoy6ltS0ehKNGz
LZXQN40sH6DG5Wc7DIyU9SxA28KlE68Tgdx0QoLDTktNgeurlubKWHXsZVD8uIuh
/FHmLu8QwrvRzIjCqCzZD1mASctOAO18FqISjCmuQcOGglE60KQOODgcXUrlMI8Y
Kruz/hbIXQ+K6n1xmepMx4jVoXVvbgX2OT71cfO3c0D5W2BoPreEY+Wn0MBzVota
Xgo90ycn1z3bvcA3NQj0EvhlS1QBjFhNsnFI4b+OPDDXZnIjB67u0nPXS6CulPIk
ts/C/7ElOHEVXGJblHvbFqQprQP4/QXcOAzVhvTC6hPgQyp4ufzlxO9Gefn3u6Tw
lwB9GgiGIOrrSlVU/kfr/ll4H4M286GKIAgfjK9FKhUjNlo01aaLmni/KtePeRuU
RA7o8Nqqp0958aP5SfIRjVJPvAYVQ53U3YZvbLxT9NvXypqORLAI+K9Wa/DrQ6En
xbJGzoFYK1madhfE0K4CmjiXlABzpCAnFa2ptwYYhD6I49XMlogZ5w==
-----END CERTIFICATE-----
