Certificate:
    Data:
        Version: 3 (0x2)
        Serial Number: 305419904 (0x12345680)
    Signature Algorithm: sha256WithRSAEncryption
        Issuer: CN=SRK3_sha256_4096_65537_v3_ca
        Validity
            Not Before: Aug 11 21:54:48 2017 GMT
            Not After : Aug  9 21:54:48 2027 GMT
        Subject: CN=IMG3_1_sha256_4096_65537_v3_usr
        Subject Public Key Info:
            Public Key Algorithm: rsaEncryption
                Public-Key: (4096 bit)
                Modulus:
                    00:c4:4c:1b:03:9e:26:6e:40:b4:c8:24:c4:0a:c6:
                    e6:20:de:b4:9f:be:e8:b5:9a:29:e9:24:b6:5c:33:
                    db:3f:6a:64:85:ce:69:e7:b0:9a:19:a2:c1:0b:d2:
                    eb:db:a9:77:16:35:29:43:e1:0d:7e:af:1a:67:45:
                    c1:27:92:5d:96:a3:a8:41:4f:4a:93:dd:30:0c:00:
                    ca:d2:5c:00:34:ab:54:fc:50:f6:d1:41:f4:e2:89:
                    72:5c:b0:9a:7b:64:62:b3:67:4d:4a:23:dd:25:58:
                    d1:dd:79:2c:cd:e1:7a:96:d2:a4:23:1e:09:64:40:
                    00:cf:bd:f2:68:19:50:cf:4c:b3:df:97:4e:60:f5:
                    69:41:a3:89:63:f3:55:4c:69:b4:33:fd:93:0b:a6:
                    ab:a3:70:b5:4c:66:4b:1f:6b:8e:8f:f5:e1:f9:38:
                    51:9b:8b:00:be:b3:09:7f:5c:f6:da:dd:29:03:f7:
                    6b:40:0c:62:49:5a:7c:0d:fb:65:b2:fe:fb:42:b9:
                    4b:74:4d:8b:a3:54:d4:9d:42:31:37:ec:88:36:4e:
                    db:39:d3:ab:92:1e:37:5b:36:0f:ae:bf:e6:9b:83:
                    e9:57:01:9a:39:77:b2:70:3c:a2:f9:b4:ef:af:22:
                    01:5a:98:d3:8e:c8:c4:3f:5f:af:64:42:78:03:61:
                    65:3d:7f:76:90:6e:4f:c2:4a:ed:d5:ce:bb:25:39:
                    38:a5:47:ec:6f:2d:7e:f1:5c:c2:53:c7:d6:f2:83:
                    e3:36:5b:59:37:95:53:59:8a:b0:c7:ac:b1:49:5f:
                    2f:66:04:66:db:ac:f6:0f:d5:c6:c4:d8:0a:99:6b:
                    b3:b8:ef:1f:ab:44:3e:19:ca:b3:a4:dc:f4:3c:51:
                    f0:ee:3d:f7:a0:eb:26:33:07:64:80:2d:5e:8f:f5:
                    a9:ef:86:d6:27:0c:dc:7f:6f:65:4f:8e:1e:0a:94:
                    e5:18:3d:99:33:02:c6:3f:36:86:dd:c2:93:5f:b8:
                    b0:6e:28:93:be:64:e8:6b:a4:44:a5:9a:94:f9:6e:
                    37:31:52:08:9a:cb:49:a0:49:94:b5:51:97:33:f3:
                    da:97:f3:20:0c:af:fd:91:cc:34:79:83:87:cd:c2:
                    21:6f:ab:46:ea:30:cc:7c:b6:78:06:0b:d6:2e:dc:
                    5e:f9:d3:29:09:d0:e7:a8:30:bc:3a:5d:bf:4f:ae:
                    68:76:b7:f4:ee:c3:45:fe:70:f9:a1:06:94:a6:c7:
                    f0:05:63:0a:72:52:2a:38:61:ab:66:2d:cf:ce:c3:
                    bb:c9:a4:cf:da:4b:2f:18:22:70:f2:03:fd:14:f8:
                    c8:a8:f6:69:64:f1:7d:77:3e:0d:f9:08:6e:bd:bc:
                    1f:d1:5b
                Exponent: 65537 (0x10001)
        X509v3 extensions:
            X509v3 Basic Constraints: 
                CA:FALSE
            Netscape Comment: 
                OpenSSL Generated Certificate
            X509v3 Subject Key Identifier: 
                77:08:8C:D7:71:7F:E3:3A:D2:20:66:7F:7B:EE:6E:FA:D6:B1:C8:5A
            X509v3 Authority Key Identifier: 
                keyid:FD:A3:98:67:41:C8:A6:2F:01:9E:2C:F2:B0:A9:EA:AE:05:3C:CC:A0

    Signature Algorithm: sha256WithRSAEncryption
         0f:85:a8:bf:12:7a:bf:ec:63:3b:5b:23:e4:70:f8:d4:57:3e:
         d3:cf:ad:83:be:99:5d:50:c2:8a:9c:a9:14:27:61:5e:d9:94:
         ab:36:7e:1f:51:e7:9c:ee:27:22:de:9e:b0:6a:3e:f7:60:c0:
         28:fc:25:9f:a4:5f:f5:a2:62:4a:24:e7:d9:4b:4e:30:01:70:
         8e:4c:22:47:96:be:ee:3c:c5:7a:25:c4:3b:cb:2b:ba:39:9b:
         4e:d3:52:2a:3c:fc:34:42:4b:27:bf:d5:00:f9:ad:36:dd:8c:
         e2:42:c4:96:df:28:2d:5d:b6:bd:16:8d:83:c3:ec:b4:e2:c2:
         4b:b6:b2:8b:99:81:76:f0:34:1b:4d:02:73:07:bf:12:e7:80:
         e4:f2:f6:61:cf:07:fc:b3:0c:82:32:a8:b3:90:2e:b5:b8:be:
         de:8a:7b:07:dd:c6:79:ad:87:a0:8a:7b:e6:74:ce:2c:33:d0:
         e7:50:dd:a1:eb:2b:17:58:21:9e:a8:fe:13:36:7d:71:c5:fd:
         c8:fd:6c:36:ce:5f:0e:6f:f2:30:7f:15:3c:59:55:81:af:e7:
         4e:ff:aa:e0:7a:32:bc:e3:42:42:4d:3f:d2:8c:f2:75:d0:87:
         b6:c1:40:9e:32:7c:e0:cf:b0:75:83:73:73:f1:d5:83:7b:01:
         c5:9d:42:38:44:18:4d:a3:85:fe:ae:42:82:18:f4:29:f3:32:
         14:85:91:4f:13:80:ce:4e:c8:00:1c:d1:32:16:9f:b6:ef:4c:
         1d:76:5b:8d:f4:b2:1c:47:5f:88:32:69:c0:75:80:58:cd:3a:
         a5:8f:c5:d8:89:26:35:c1:32:41:ca:4b:b0:57:85:e5:53:27:
         13:a6:89:01:68:e1:ac:b3:39:63:20:13:11:29:d9:88:61:7a:
         40:a3:44:31:6d:6a:5f:9d:41:fe:61:52:7a:71:64:89:54:46:
         73:9a:90:2e:83:0f:76:19:b1:76:9a:5a:fb:db:3f:95:47:1d:
         e5:fb:cb:0f:53:8e:68:7a:65:dd:a6:6c:fe:c2:27:27:78:d5:
         29:06:e6:0d:d9:ab:dc:b2:41:fc:5a:d7:7b:41:b9:88:1d:41:
         6d:2a:26:38:52:7a:6a:8a:93:a5:30:1f:84:ca:0c:80:12:11:
         cc:31:7b:9e:a8:7b:6a:84:f3:43:36:09:8d:67:d9:2f:5a:d1:
         11:f9:5e:97:8b:22:43:d8:54:88:4b:2b:f8:ef:6b:07:56:98:
         5b:8a:4e:53:5c:d6:74:99:ff:f4:40:74:f3:4e:45:2d:25:b0:
         43:d0:26:79:b9:a8:a2:77:4e:5f:5a:ea:64:cc:84:56:91:74:
         58:62:43:57:5c:ca:49:68
-----BEGIN CERTIFICATE-----
MIIFSjCCAzKgAwIBAgIEEjRWgDANBgkqhkiG9w0BAQsFADAnMSUwIwYDVQQDDBxT
UkszX3NoYTI1Nl80MDk2XzY1NTM3X3YzX2NhMB4XDTE3MDgxMTIxNTQ0OFoXDTI3
MDgwOTIxNTQ0OFowKjEoMCYGA1UEAwwfSU1HM18xX3NoYTI1Nl80MDk2XzY1NTM3
X3YzX3VzcjCCAiIwDQYJKoZIhvcNAQEBBQADggIPADCCAgoCggIBAMRMGwOeJm5A
tMgkxArG5iDetJ++6LWaKekktlwz2z9qZIXOaeewmhmiwQvS69updxY1KUPhDX6v
GmdFwSeSXZajqEFPSpPdMAwAytJcADSrVPxQ9tFB9OKJclywmntkYrNnTUoj3SVY
0d15LM3hepbSpCMeCWRAAM+98mgZUM9Ms9+XTmD1aUGjiWPzVUxptDP9kwumq6Nw
tUxmSx9rjo/14fk4UZuLAL6zCX9c9trdKQP3a0AMYklafA37ZbL++0K5S3RNi6NU
1J1CMTfsiDZO2znTq5IeN1s2D66/5puD6VcBmjl3snA8ovm0768iAVqY047IxD9f
r2RCeANhZT1/dpBuT8JK7dXOuyU5OKVH7G8tfvFcwlPH1vKD4zZbWTeVU1mKsMes
sUlfL2YEZtus9g/VxsTYCplrs7jvH6tEPhnKs6Tc9DxR8O4996DrJjMHZIAtXo/1
qe+G1icM3H9vZU+OHgqU5Rg9mTMCxj82ht3Ck1+4sG4ok75k6GukRKWalPluNzFS
CJrLSaBJlLVRlzPz2pfzIAyv/ZHMNHmDh83CIW+rRuowzHy2eAYL1i7cXvnTKQnQ
56gwvDpdv0+uaHa39O7DRf5w+aEGlKbH8AVjCnJSKjhhq2Ytz87Du8mkz9pLLxgi
cPID/RT4yKj2aWTxfXc+DfkIbr28H9FbAgMBAAGjezB5MAkGA1UdEwQCMAAwLAYJ
YIZIAYb4QgENBB8WHU9wZW5TU0wgR2VuZXJhdGVkIENlcnRpZmljYXRlMB0GA1Ud
DgQWBBR3CIzXcX/jOtIgZn977m761rHIWjAfBgNVHSMEGDAWgBT9o5hnQcimLwGe
LPKwqequBTzMoDANBgkqhkiG9w0BAQsFAAOCAgEAD4WovxJ6v+xjO1sj5HD41Fc+
08+tg76ZXVDCipypFCdhXtmUqzZ+H1HnnO4nIt6esGo+92DAKPwln6Rf9aJiSiTn
2UtOMAFwjkwiR5a+7jzFeiXEO8srujmbTtNSKjz8NEJLJ7/VAPmtNt2M4kLElt8o
LV22vRaNg8PstOLCS7ayi5mBdvA0G00Ccwe/EueA5PL2Yc8H/LMMgjKos5Autbi+
3op7B93Gea2HoIp75nTOLDPQ51DdoesrF1ghnqj+EzZ9ccX9yP1sNs5fDm/yMH8V
PFlVga/nTv+q4HoyvONCQk0/0ozyddCHtsFAnjJ84M+wdYNzc/HVg3sBxZ1COEQY
TaOF/q5Cghj0KfMyFIWRTxOAzk7IABzRMhaftu9MHXZbjfSyHEdfiDJpwHWAWM06
pY/F2IkmNcEyQcpLsFeF5VMnE6aJAWjhrLM5YyATESnZiGF6QKNEMW1qX51B/mFS
enFkiVRGc5qQLoMPdhmxdppa+9s/lUcd5fvLD1OOaHpl3aZs/sInJ3jVKQbmDdmr
3LJB/FrXe0G5iB1BbSomOFJ6aoqTpTAfhMoMgBIRzDF7nqh7aoTzQzYJjWfZL1rR
Eflel4siQ9hUiEsr+O9rB1aYW4pOU1zWdJn/9EB0805FLSWwQ9AmebmoondOX1rq
ZMyEVpF0WGJDV1zKSWg=
-----END CERTIFICATE-----
