Certificate:
    Data:
        Version: 3 (0x2)
        Serial Number: 305419906 (0x12345682)
    Signature Algorithm: sha256WithRSAEncryption
        Issuer: CN=SRK4_sha256_4096_65537_v3_ca
        Validity
            Not Before: Aug 11 21:54:50 2017 GMT
            Not After : Aug  9 21:54:50 2027 GMT
        Subject: CN=CSF4_1_sha256_4096_65537_v3_usr
        Subject Public Key Info:
            Public Key Algorithm: rsaEncryption
                Public-Key: (4096 bit)
                Modulus:
                    00:ca:62:26:e2:e6:77:70:8a:58:f8:8d:9c:95:24:
                    85:3e:bc:1e:bd:ea:30:52:36:46:51:13:50:05:cf:
                    57:16:0f:d9:ed:2c:e5:c4:d6:ef:0a:f0:e8:d4:eb:
                    4c:9c:36:25:f9:ec:8d:9d:e6:f2:5f:c1:e6:22:8c:
                    ce:5a:3f:b5:a5:e6:03:90:a6:55:36:ae:02:50:f5:
                    79:37:f3:4d:41:3b:51:ad:8b:ff:69:7c:3b:2d:b6:
                    e9:2d:43:9b:1b:f0:38:09:21:f0:96:04:dc:54:2d:
                    fc:8b:20:ca:d4:2f:b2:0f:1e:33:5f:a7:5c:d3:ac:
                    84:9b:b2:a7:66:38:61:cc:45:0c:b1:d0:65:7d:ef:
                    40:98:2a:ba:42:f9:a2:a5:5e:25:a7:5f:b3:ad:e0:
                    ba:f4:21:9b:b1:0d:db:93:71:c7:49:56:5a:07:2a:
                    f5:ef:c5:81:d5:32:60:74:d2:fc:81:b7:49:e3:7e:
                    52:85:5c:1f:35:e5:f1:75:71:74:f4:0f:67:1d:54:
                    1c:89:8b:54:fd:db:f9:82:ef:62:ad:a0:0e:b9:bc:
                    91:29:50:d1:b5:dd:df:a0:22:72:eb:3a:39:72:43:
                    42:f3:25:c1:9f:37:6e:f6:82:ff:f4:04:28:1a:6b:
                    6e:95:da:d6:2b:ed:c0:22:2f:e6:84:fa:4f:ee:6e:
                    d9:70:8e:e4:df:79:6d:fc:05:83:b1:32:68:40:9f:
                    72:16:18:93:b3:9b:29:90:cf:f0:eb:eb:7c:b9:23:
                    e0:90:9e:2d:23:7a:ad:d4:00:74:cc:0f:84:33:4e:
                    f0:8a:f4:03:c7:1b:aa:4c:39:65:b8:75:ef:61:16:
                    b1:b3:55:d3:66:76:af:21:30:1b:c3:bd:bc:14:db:
                    02:3e:28:2b:8a:7d:0f:73:28:38:17:c7:e9:6e:55:
                    82:63:a1:78:51:a4:88:b3:e9:81:d6:ce:93:81:26:
                    b8:a9:5c:7b:d4:f1:ac:a3:2c:bc:1c:c3:ca:dd:e6:
                    85:43:ce:eb:a0:98:b4:3b:b0:69:3d:4d:d4:b0:47:
                    07:af:08:97:72:25:7d:f2:26:dc:4e:1f:83:c2:d8:
                    2f:5a:20:1f:50:88:02:db:ac:92:ba:a5:95:43:17:
                    4d:7c:3d:0b:cc:1d:ac:11:b3:6b:91:ed:d7:cd:9c:
                    c4:89:d0:bf:c8:95:6f:43:be:6e:ff:46:de:78:a0:
                    8f:fd:60:cd:fb:24:e2:30:e9:96:e5:2e:08:f4:10:
                    ce:fc:b5:70:d6:e0:f5:20:bd:d9:07:55:f6:74:63:
                    5f:a0:8e:59:f8:eb:54:a7:34:58:8a:b4:64:05:ac:
                    35:19:d3:50:68:c3:d4:e9:56:2c:d6:93:39:f2:17:
                    19:1e:c9
                Exponent: 65537 (0x10001)
        X509v3 extensions:
            X509v3 Basic Constraints: 
                CA:FALSE
            Netscape Comment: 
                OpenSSL Generated Certificate
            X509v3 Subject Key Identifier: 
                B2:66:D4:88:1B:3C:3A:3F:14:92:50:E4:12:AC:68:38:EF:20:8A:AC
            X509v3 Authority Key Identifier: 
                keyid:62:1A:9C:12:B4:86:B3:B1:96:DD:22:87:1A:2A:99:EE:47:94:9D:5A

    Signature Algorithm: sha256WithRSAEncryption
         3f:a9:62:54:b0:2c:65:00:08:ab:69:e2:40:5b:4d:d5:3e:e3:
         51:5e:3f:9a:c8:fe:7c:47:b9:a7:08:4b:75:fd:12:1a:bc:9f:
         7c:27:5c:fe:9b:fe:45:c4:e8:ca:c5:cf:2b:b6:fb:fb:2f:54:
         8c:c0:15:f3:0b:18:8c:2f:bf:d2:0b:58:2b:4e:6d:ab:7d:d9:
         68:9b:19:f7:e6:19:d9:8b:7a:71:aa:59:6a:9a:60:7b:ce:97:
         8f:48:e7:1c:2d:0c:68:06:8c:e3:33:e9:84:1f:35:85:c9:7e:
         52:86:e4:21:ab:eb:08:76:ef:8e:2f:62:d4:da:39:46:79:f2:
         7b:5c:e9:c7:53:44:0d:c4:41:1c:4f:53:e5:2f:df:2e:87:4e:
         8e:3b:5e:bf:72:89:4f:52:b4:43:b1:57:c6:ad:85:ee:78:e2:
         20:ee:08:60:61:d4:7b:0c:5c:10:b3:46:74:d7:1f:b0:99:b4:
         04:7c:7d:9f:e2:a3:a6:ef:13:76:75:4b:d9:e6:ad:6e:a3:c8:
         b9:66:3d:a1:85:87:02:56:a7:6e:a1:c7:3a:ab:d4:47:ec:2b:
         fe:f7:82:fe:15:2d:cc:f1:9f:8d:ee:5f:db:8d:63:73:ae:1a:
         0b:0a:ed:cb:10:23:2d:8d:0f:8b:ac:77:04:d1:71:88:83:3c:
         91:40:a6:1b:86:9c:04:5e:d7:72:1a:52:8c:f9:a1:59:ae:ba:
         1a:da:5e:f2:2a:d3:47:34:fc:9a:2a:14:52:99:55:67:3e:60:
         43:7a:4b:1e:90:eb:cb:1b:3c:e9:93:90:df:36:c9:54:11:07:
         60:d4:90:1c:d7:67:a8:24:fd:00:7e:32:d2:eb:51:2f:42:5a:
         cd:0d:3b:34:33:d6:11:17:08:2d:2c:52:39:d7:d7:f6:47:f5:
         5d:de:55:ff:e7:71:14:4d:b4:35:f1:94:df:eb:4a:6f:ec:2b:
         64:27:15:98:3b:16:02:15:8a:51:cf:c5:f4:83:66:7f:50:bb:
         8c:7b:5a:1f:a6:d5:6a:3e:d0:e3:51:0d:96:05:1a:bf:eb:fa:
         c4:e0:f5:7f:1a:75:1e:e9:b6:fc:3b:bd:f7:49:10:f4:ff:97:
         87:79:4c:83:da:11:f0:df:f0:da:07:05:50:28:e5:cd:58:10:
         7e:e5:93:c2:0c:0a:08:48:5f:31:68:4f:0d:68:47:49:db:a1:
         e6:5b:60:4f:d3:86:a1:60:7f:ab:e5:70:0d:54:30:ab:63:c4:
         06:88:b7:4e:55:68:5e:b9:09:b7:dd:a2:02:38:ed:7c:d4:73:
         48:f2:76:e9:60:54:d6:f5:a6:4c:59:2f:88:05:c8:f7:60:7e:
         e6:dc:85:0e:99:01:1b:28
-----BEGIN CERTIFICATE-----
MIIFSjCCAzKgAwIBAgIEEjRWgjANBgkqhkiG9w0BAQsFADAnMSUwIwYDVQQDDBxT
Uks0X3NoYTI1Nl80MDk2XzY1NTM3X3YzX2NhMB4XDTE3MDgxMTIxNTQ1MFoXDTI3
MDgwOTIxNTQ1MFowKjEoMCYGA1UEAwwfQ1NGNF8xX3NoYTI1Nl80MDk2XzY1NTM3
X3YzX3VzcjCCAiIwDQYJKoZIhvcNAQEBBQADggIPADCCAgoCggIBAMpiJuLmd3CK
WPiNnJUkhT68Hr3qMFI2RlETUAXPVxYP2e0s5cTW7wrw6NTrTJw2JfnsjZ3m8l/B
5iKMzlo/taXmA5CmVTauAlD1eTfzTUE7Ua2L/2l8Oy226S1DmxvwOAkh8JYE3FQt
/IsgytQvsg8eM1+nXNOshJuyp2Y4YcxFDLHQZX3vQJgqukL5oqVeJadfs63guvQh
m7EN25Nxx0lWWgcq9e/FgdUyYHTS/IG3SeN+UoVcHzXl8XVxdPQPZx1UHImLVP3b
+YLvYq2gDrm8kSlQ0bXd36Aicus6OXJDQvMlwZ83bvaC//QEKBprbpXa1ivtwCIv
5oT6T+5u2XCO5N95bfwFg7EyaECfchYYk7ObKZDP8OvrfLkj4JCeLSN6rdQAdMwP
hDNO8Ir0A8cbqkw5Zbh172EWsbNV02Z2ryEwG8O9vBTbAj4oK4p9D3MoOBfH6W5V
gmOheFGkiLPpgdbOk4EmuKlce9TxrKMsvBzDyt3mhUPO66CYtDuwaT1N1LBHB68I
l3IlffIm3E4fg8LYL1ogH1CIAtuskrqllUMXTXw9C8wdrBGza5Ht182cxInQv8iV
b0O+bv9G3nigj/1gzfsk4jDpluUuCPQQzvy1cNbg9SC92QdV9nRjX6COWfjrVKc0
WIq0ZAWsNRnTUGjD1OlWLNaTOfIXGR7JAgMBAAGjezB5MAkGA1UdEwQCMAAwLAYJ
YIZIAYb4QgENBB8WHU9wZW5TU0wgR2VuZXJhdGVkIENlcnRpZmljYXRlMB0GA1Ud
DgQWBBSyZtSIGzw6PxSSUOQSrGg47yCKrDAfBgNVHSMEGDAWgBRiGpwStIazsZbd
IocaKpnuR5SdWjANBgkqhkiG9w0BAQsFAAOCAgEAP6liVLAsZQAIq2niQFtN1T7j
UV4/msj+fEe5pwhLdf0SGryffCdc/pv+RcToysXPK7b7+y9UjMAV8wsYjC+/0gtY
K05tq33ZaJsZ9+YZ2Yt6capZappge86Xj0jnHC0MaAaM4zPphB81hcl+UobkIavr
CHbvji9i1No5Rnnye1zpx1NEDcRBHE9T5S/fLodOjjtev3KJT1K0Q7FXxq2F7nji
IO4IYGHUewxcELNGdNcfsJm0BHx9n+Kjpu8TdnVL2eatbqPIuWY9oYWHAlanbqHH
OqvUR+wr/veC/hUtzPGfje5f241jc64aCwrtyxAjLY0Pi6x3BNFxiIM8kUCmG4ac
BF7XchpSjPmhWa66Gtpe8irTRzT8mioUUplVZz5gQ3pLHpDryxs86ZOQ3zbJVBEH
YNSQHNdnqCT9AH4y0utRL0JazQ07NDPWERcILSxSOdfX9kf1Xd5V/+dxFE20NfGU
3+tKb+wrZCcVmDsWAhWKUc/F9INmf1C7jHtaH6bVaj7Q41ENlgUav+v6xOD1fxp1
Hum2/Du990kQ9P+Xh3lMg9oR8N/w2gcFUCjlzVgQfuWTwgwKCEhfMWhPDWhHSduh
5ltgT9OGoWB/q+VwDVQwq2PEBoi3TlVoXrkJt92iAjjtfNRzSPJ26WBU1vWmTFkv
iAXI92B+5tyFDpkBGyg=
-----END CERTIFICATE-----
