Certificate:
    Data:
        Version: 3 (0x2)
        Serial Number: 305419896 (0x12345678)
    Signature Algorithm: sha256WithRSAEncryption
        Issuer: CN=CA1_sha256_4096_65537_v3_ca
        Validity
            Not Before: Aug 11 21:54:45 2017 GMT
            Not After : Aug  9 21:54:45 2027 GMT
        Subject: CN=SRK1_sha256_4096_65537_v3_ca
        Subject Public Key Info:
            Public Key Algorithm: rsaEncryption
                Public-Key: (4096 bit)
                Modulus:
                    00:c2:1c:26:6f:96:70:79:11:1d:f7:32:88:df:3e:
                    0d:51:e9:b1:8f:bc:be:b8:52:64:3f:00:c1:db:0b:
                    84:9a:93:a6:4d:40:62:c1:a8:de:c4:e6:36:89:8c:
                    00:5c:17:4d:db:e2:03:29:7b:5b:1d:a8:c8:97:01:
                    d5:8b:e2:e2:b5:7c:e6:f4:4a:19:9b:52:25:01:ff:
                    cf:d2:b3:f0:0b:33:be:33:87:90:ee:7c:a2:de:13:
                    9e:0f:5d:24:44:77:ce:83:fb:7a:04:48:67:b8:73:
                    a4:18:c6:11:88:4b:91:62:f8:0e:a3:28:ed:32:f6:
                    d8:d3:f1:82:db:9c:51:98:ce:46:c7:3d:f5:e2:b2:
                    4c:4a:9f:8a:21:a9:63:7f:c2:32:b5:72:b0:f9:09:
                    20:e4:e6:60:d2:ac:ad:5a:f2:2f:7a:ea:69:d0:ef:
                    19:10:8e:f1:8c:41:fd:a1:66:0e:67:df:ee:72:d7:
                    5a:92:af:9a:ec:48:50:5f:c2:9f:c6:cb:56:36:44:
                    81:5a:39:bf:ce:7a:7d:c7:ae:a3:02:0d:fe:cc:1a:
                    b7:9a:31:ff:7a:dc:cb:6c:ce:38:63:30:10:f6:03:
                    e8:60:f3:94:59:4c:aa:76:6d:b2:a2:11:7a:72:c7:
                    c9:e9:27:05:6b:66:03:fb:65:d3:9d:c4:36:9c:b8:
                    d5:65:cc:a1:2b:0a:65:dd:57:c3:33:ff:e8:bd:40:
                    de:70:2e:0c:58:a0:d0:60:5a:76:a6:00:95:ee:2d:
                    ff:58:89:24:5b:d0:de:34:da:01:bb:4d:e7:cd:17:
                    a2:80:b6:c5:59:9e:0f:13:ca:54:db:36:8b:49:ee:
                    6c:02:f8:37:99:c2:03:95:93:fc:21:8c:0f:4c:f8:
                    4a:42:61:e9:da:12:0b:de:d1:07:8f:77:13:7a:0a:
                    bb:27:ae:90:b4:1f:f9:52:b9:62:04:5f:e5:22:08:
                    fb:3e:33:d0:9c:03:58:15:2d:42:50:9f:c5:87:54:
                    0a:f3:1b:a7:13:b0:a9:a5:fc:fa:38:f4:be:3d:c6:
                    43:d8:f0:06:fc:b4:5c:28:e8:ef:6a:4c:65:78:fe:
                    d7:90:74:0b:7c:b5:7c:f5:26:2b:8a:d2:96:28:12:
                    bd:c7:f3:bd:24:d6:f9:a1:2f:c2:3a:49:c0:dd:bd:
                    0b:3e:07:2b:f5:8d:02:09:4a:3d:e6:35:29:3d:9c:
                    54:dd:17:b7:75:2a:cc:0f:41:62:34:0d:67:b2:f0:
                    a4:5f:fb:60:b7:dc:e3:10:8a:98:f4:fc:8d:c3:df:
                    ed:58:99:8a:cc:06:e5:8f:4c:87:2f:7a:46:2a:b5:
                    b8:2b:38:c8:fb:f9:c6:b1:1a:b8:45:10:5f:af:e9:
                    93:bc:7b
                Exponent: 65537 (0x10001)
        X509v3 extensions:
            X509v3 Subject Key Identifier: 
                A6:C7:4B:8A:69:1F:98:7A:C5:FB:0F:E4:2F:93:50:34:CD:83:E4:E0
            X509v3 Authority Key Identifier: 
                keyid:7F:51:8A:C3:F7:3A:B4:88:A6:C7:3F:91:1F:E9:D8:C0:97:9A:44:E4
                DirName:/CN=CA1_sha256_4096_65537_v3_ca
                serial:ED:08:74:6A:44:B4:82:45

            X509v3 Basic Constraints: critical
                CA:TRUE
            X509v3 Key Usage: 
                Certificate Sign
    Signature Algorithm: sha256WithRSAEncryption
         8e:c9:e7:60:01:37:58:5f:63:44:1f:b6:a2:14:0b:f8:44:80:
         25:89:cb:b4:1c:58:9f:d5:91:f3:3e:d8:28:1f:7b:a5:87:7d:
         11:84:48:6e:d4:c3:dc:92:15:a7:c8:b2:df:21:4f:f8:de:c9:
         9c:d0:ff:41:d1:4a:75:12:25:2e:46:1d:b3:cb:f6:94:46:13:
         b2:fc:57:79:db:e5:1f:b9:ee:ef:45:b7:16:ff:43:e3:53:73:
         f0:9c:f9:3f:39:dc:d5:2b:0d:aa:2c:96:c5:61:3c:f2:9e:53:
         41:36:07:ae:b4:17:0f:40:dc:e0:14:a8:ef:b4:54:03:47:ad:
         3b:66:36:ea:65:cb:c0:af:14:2b:a5:47:c9:bf:5f:c1:84:a5:
         6a:f3:b0:16:31:a8:2d:64:f6:e3:60:b0:bd:9f:62:17:9b:3c:
         03:40:7e:ef:02:05:43:0b:f4:9b:71:b9:5e:7a:24:3a:61:5c:
         2f:40:39:a6:38:80:a6:88:8d:64:ac:49:bf:a8:1d:ad:71:c9:
         62:e7:f8:b8:3e:93:15:a3:d1:a4:0e:4c:6d:8b:fd:d1:c3:6c:
         4f:b0:b2:4f:5e:ef:22:72:30:37:7d:f0:fd:cc:12:ad:8c:6c:
         3b:56:f5:1a:32:43:34:45:8d:ee:f3:21:b9:b7:ff:99:97:58:
         f4:60:dd:59:04:0f:01:54:c2:08:6e:49:e8:43:b3:da:88:25:
         40:c2:0e:30:4e:ff:1d:d5:fa:31:91:3f:c9:06:39:b3:a8:28:
         d1:ea:ac:ef:48:20:65:3b:4e:db:7d:81:b5:15:83:af:01:2e:
         40:d3:91:28:2f:f6:29:81:28:57:5b:8e:cb:81:05:d2:12:74:
         a7:e6:38:25:2a:55:fc:91:36:49:66:22:47:fa:17:54:1e:93:
         0a:4d:d0:62:01:79:26:b1:00:02:22:bd:09:ee:88:01:47:6b:
         c3:22:20:4b:1b:09:5a:e4:24:e1:12:9e:58:be:2e:c4:64:68:
         0a:6b:6e:ee:91:f5:de:e1:58:14:8e:b7:f5:d5:81:52:9d:7f:
         71:69:ba:20:29:45:7d:62:8b:29:40:6b:c0:99:61:72:06:d9:
         01:61:74:3f:fb:3a:20:48:c9:5d:18:90:7d:13:f7:7d:70:78:
         f0:4d:a5:f4:93:47:9f:52:71:d7:62:83:cb:22:ae:93:fd:0d:
         1d:51:bd:be:cb:7d:bc:32:88:bc:b9:6e:70:7c:7e:47:c8:bf:
         de:26:11:1e:24:fb:37:d4:39:4f:41:ad:76:76:48:cb:65:ca:
         5c:ea:28:63:28:c1:15:45:f5:fa:94:59:3a:82:d7:3f:80:7e:
         c2:1f:2d:49:d4:83:d8:80
-----BEGIN CERTIFICATE-----
MIIFZDCCA0ygAwIBAgIEEjRWeDANBgkqhkiG9w0BAQsFADAmMSQwIgYDVQQDFBtD
QTFfc2hhMjU2XzQwOTZfNjU1MzdfdjNfY2EwHhcNMTcwODExMjE1NDQ1WhcNMjcw
ODA5MjE1NDQ1WjAnMSUwIwYDVQQDDBxTUksxX3NoYTI1Nl80MDk2XzY1NTM3X3Yz
X2NhMIICIjANBgkqhkiG9w0BAQEFAAOCAg8AMIICCgKCAgEAwhwmb5ZweREd9zKI
3z4NUemxj7y+uFJkPwDB2wuEmpOmTUBiwajexOY2iYwAXBdN2+IDKXtbHajIlwHV
i+LitXzm9EoZm1IlAf/P0rPwCzO+M4eQ7nyi3hOeD10kRHfOg/t6BEhnuHOkGMYR
iEuRYvgOoyjtMvbY0/GC25xRmM5Gxz314rJMSp+KIaljf8IytXKw+Qkg5OZg0qyt
WvIveupp0O8ZEI7xjEH9oWYOZ9/uctdakq+a7EhQX8KfxstWNkSBWjm/znp9x66j
Ag3+zBq3mjH/etzLbM44YzAQ9gPoYPOUWUyqdm2yohF6csfJ6ScFa2YD+2XTncQ2
nLjVZcyhKwpl3VfDM//ovUDecC4MWKDQYFp2pgCV7i3/WIkkW9DeNNoBu03nzRei
gLbFWZ4PE8pU2zaLSe5sAvg3mcIDlZP8IYwPTPhKQmHp2hIL3tEHj3cTegq7J66Q
tB/5UrliBF/lIgj7PjPQnANYFS1CUJ/Fh1QK8xunE7Cppfz6OPS+PcZD2PAG/LRc
KOjvakxleP7XkHQLfLV89SYritKWKBK9x/O9JNb5oS/COknA3b0LPgcr9Y0CCUo9
5jUpPZxU3Re3dSrMD0FiNA1nsvCkX/tgt9zjEIqY9PyNw9/tWJmKzAblj0yHL3pG
KrW4KzjI+/nGsRq4RRBfr+mTvHsCAwEAAaOBmDCBlTAdBgNVHQ4EFgQUpsdLimkf
mHrF+w/kL5NQNM2D5OAwVgYDVR0jBE8wTYAUf1GKw/c6tIimxz+RH+nYwJeaROSh
KqQoMCYxJDAiBgNVBAMUG0NBMV9zaGEyNTZfNDA5Nl82NTUzN192M19jYYIJAO0I
dGpEtIJFMA8GA1UdEwEB/wQFMAMBAf8wCwYDVR0PBAQDAgIEMA0GCSqGSIb3DQEB
CwUAA4ICAQCOyedgATdYX2NEH7aiFAv4RIAlicu0HFif1ZHzPtgoH3ulh30RhEhu
1MPckhWnyLLfIU/43smc0P9B0Up1EiUuRh2zy/aURhOy/Fd52+Ufue7vRbcW/0Pj
U3PwnPk/OdzVKw2qLJbFYTzynlNBNgeutBcPQNzgFKjvtFQDR607ZjbqZcvArxQr
pUfJv1/BhKVq87AWMagtZPbjYLC9n2IXmzwDQH7vAgVDC/SbcbleeiQ6YVwvQDmm
OICmiI1krEm/qB2tccli5/i4PpMVo9GkDkxti/3Rw2xPsLJPXu8icjA3ffD9zBKt
jGw7VvUaMkM0RY3u8yG5t/+Zl1j0YN1ZBA8BVMIIbknoQ7PaiCVAwg4wTv8d1fox
kT/JBjmzqCjR6qzvSCBlO07bfYG1FYOvAS5A05EoL/YpgShXW47LgQXSEnSn5jgl
KlX8kTZJZiJH+hdUHpMKTdBiAXkmsQACIr0J7ogBR2vDIiBLGwla5CThEp5Yvi7E
ZGgKa27ukfXe4VgUjrf11YFSnX9xabogKUV9YospQGvAmWFyBtkBYXQ/+zogSMld
GJB9E/d9cHjwTaX0k0efUnHXYoPLIq6T/Q0dUb2+y328Moi8uW5wfH5HyL/eJhEe
JPs31DlPQa12dkjLZcpc6ihjKMEVRfX6lFk6gtc/gH7CHy1J1IPYgA==
-----END CERTIFICATE-----
